---
triple:          'x86_64-apple-darwin'
binary-path:     './build/Debug/outDebug'
relocations:
  - { offsetInCU: 0x3F, offset: 0x3F, size: 0x8, addend: 0x0, symName: _g_gender, symObjAddr: 0x56FA8, symBinAddr: 0x100014000, symSize: 0x0 }
  - { offsetInCU: 0x6733, offset: 0x6733, size: 0x8, addend: 0x0, symName: __ZNSt3__124__put_character_sequenceB7v160006IcNS_11char_traitsIcEEEERNS_13basic_ostreamIT_T0_EES7_PKS4_m, symObjAddr: 0x5C00, symBinAddr: 0x10000A170, symSize: 0x1F0 }
  - { offsetInCU: 0x762B, offset: 0x762B, size: 0x8, addend: 0x0, symName: __ZNSt3__16copy_nB7v160006IPKcmPcEENS_9enable_ifIXsr33__is_cpp17_random_access_iteratorIT_EE5valueET1_E4typeES5_T0_S6_, symObjAddr: 0x6CF0, symBinAddr: 0x10000B260, symSize: 0x40 }
  - { offsetInCU: 0x8D20, offset: 0x8D20, size: 0x8, addend: 0x0, symName: __ZNSt3__1lsB7v160006INS_11char_traitsIcEEEERNS_13basic_ostreamIcT_EES6_PKc, symObjAddr: 0x1A0, symBinAddr: 0x100004710, symSize: 0x40 }
  - { offsetInCU: 0x8D66, offset: 0x8D66, size: 0x8, addend: 0x0, symName: __ZNSt3__1plB7v160006IcNS_11char_traitsIcEENS_9allocatorIcEEEENS_12basic_stringIT_T0_T1_EERKS9_SB_, symObjAddr: 0x3E0, symBinAddr: 0x100004950, symSize: 0x110 }
  - { offsetInCU: 0x8E08, offset: 0x8E08, size: 0x8, addend: 0x0, symName: __ZNSt3__1plB7v160006IcNS_11char_traitsIcEENS_9allocatorIcEEEENS_12basic_stringIT_T0_T1_EERKS9_PKS6_, symObjAddr: 0x4F0, symBinAddr: 0x100004A60, symSize: 0x100 }
  - { offsetInCU: 0x8EAA, offset: 0x8EAA, size: 0x8, addend: 0x0, symName: __ZNSt3__17getlineB7v160006IcNS_11char_traitsIcEENS_9allocatorIcEEEERNS_13basic_istreamIT_T0_EES9_RNS_12basic_stringIS6_S7_T1_EE, symObjAddr: 0x1DB0, symBinAddr: 0x100006320, symSize: 0x50 }
  - { offsetInCU: 0x8F02, offset: 0x8F02, size: 0x8, addend: 0x0, symName: __ZNSt3__1eqB7v160006IcNS_11char_traitsIcEENS_9allocatorIcEEEEbRKNS_12basic_stringIT_T0_T1_EEPKS6_, symObjAddr: 0x1E00, symBinAddr: 0x100006370, symSize: 0xB0 }
  - { offsetInCU: 0x8F69, offset: 0x8F69, size: 0x8, addend: 0x0, symName: __ZNSt3__19make_pairB7v160006IiRNS_12basic_stringIcNS_11char_traitsIcEENS_9allocatorIcEEEEEENS_4pairINS_18__unwrap_ref_decayIT_E4typeENS9_IT0_E4typeEEEOSA_OSD_, symObjAddr: 0x21E0, symBinAddr: 0x100006750, symSize: 0x40 }
  - { offsetInCU: 0x8FB8, offset: 0x8FB8, size: 0x8, addend: 0x0, symName: __ZNSt3__1lsB7v160006IcNS_11char_traitsIcEENS_9allocatorIcEEEERNS_13basic_ostreamIT_T0_EES9_RKNS_12basic_stringIS6_S7_T1_EE, symObjAddr: 0x2A60, symBinAddr: 0x100006FD0, symSize: 0x50 }
  - { offsetInCU: 0x9010, offset: 0x9010, size: 0x8, addend: 0x0, symName: __ZNSt3__14endlB7v160006IcNS_11char_traitsIcEEEERNS_13basic_ostreamIT_T0_EES7_, symObjAddr: 0x2AD0, symBinAddr: 0x100007040, symSize: 0x50 }
  - { offsetInCU: 0xA40B, offset: 0xA40B, size: 0x8, addend: 0x0, symName: __ZNSt3__17getlineB7v160006IcNS_11char_traitsIcEENS_9allocatorIcEEEERNS_13basic_istreamIT_T0_EES9_RNS_12basic_stringIS6_S7_T1_EES6_, symObjAddr: 0x3F80, symBinAddr: 0x1000084F0, symSize: 0x220 }
  - { offsetInCU: 0xA4DF, offset: 0xA4DF, size: 0x8, addend: 0x0, symName: __ZNSt3__119__debug_db_insert_cB7v160006INS_12basic_stringIcNS_11char_traitsIcEENS_9allocatorIcEEEEEEvPT_, symObjAddr: 0x4A30, symBinAddr: 0x100008FA0, symSize: 0x10 }
  - { offsetInCU: 0xA510, offset: 0xA510, size: 0x8, addend: 0x0, symName: __ZNSt3__130__libcpp_is_constant_evaluatedB7v160006Ev, symObjAddr: 0x4BB0, symBinAddr: 0x100009120, symSize: 0x10 }
  - { offsetInCU: 0xA52D, offset: 0xA52D, size: 0x8, addend: 0x0, symName: __ZNSt3__117__libcpp_allocateB7v160006Emm, symObjAddr: 0x4E90, symBinAddr: 0x100009400, symSize: 0x20 }
  - { offsetInCU: 0xA56A, offset: 0xA56A, size: 0x8, addend: 0x0, symName: __ZNSt3__121__libcpp_operator_newB7v160006IJmEEEPvDpT_, symObjAddr: 0x4ED0, symBinAddr: 0x100009440, symSize: 0x20 }
  - { offsetInCU: 0xA5D6, offset: 0xA5D6, size: 0x8, addend: 0x0, symName: __ZNSt3__119__libcpp_deallocateB7v160006EPvmm, symObjAddr: 0x5500, symBinAddr: 0x100009A70, symSize: 0x30 }
  - { offsetInCU: 0xA61E, offset: 0xA61E, size: 0x8, addend: 0x0, symName: __ZNSt3__127__do_deallocate_handle_sizeB7v160006IJEEEvPvmDpT_, symObjAddr: 0x5530, symBinAddr: 0x100009AA0, symSize: 0x20 }
  - { offsetInCU: 0xA65C, offset: 0xA65C, size: 0x8, addend: 0x0, symName: __ZNSt3__124__libcpp_operator_deleteB7v160006IJPvEEEvDpT_, symObjAddr: 0x5550, symBinAddr: 0x100009AC0, symSize: 0x20 }
  - { offsetInCU: 0xA691, offset: 0xA691, size: 0x8, addend: 0x0, symName: __ZNSt3__119__debug_db_insert_cB7v160006INS_6vectorI8UserDataNS_9allocatorIS2_EEEEEEvPT_, symObjAddr: 0x5650, symBinAddr: 0x100009BC0, symSize: 0x10 }
  - { offsetInCU: 0xA6C2, offset: 0xA6C2, size: 0x8, addend: 0x0, symName: __ZNSt3__118__debug_db_erase_cB7v160006INS_6vectorI8UserDataNS_9allocatorIS2_EEEEEEvPT_, symObjAddr: 0x58D0, symBinAddr: 0x100009E40, symSize: 0x10 }
  - { offsetInCU: 0xA6F3, offset: 0xA6F3, size: 0x8, addend: 0x0, symName: __ZNSt3__112__to_addressB7v160006I8UserDataEEPT_S3_, symObjAddr: 0x59D0, symBinAddr: 0x100009F40, symSize: 0x10 }
  - { offsetInCU: 0xA728, offset: 0xA728, size: 0x8, addend: 0x0, symName: __ZNSt3__116__pad_and_outputB7v160006IcNS_11char_traitsIcEEEENS_19ostreambuf_iteratorIT_T0_EES6_PKS4_S8_S8_RNS_8ios_baseES4_, symObjAddr: 0x5E50, symBinAddr: 0x10000A3C0, symSize: 0x220 }
  - { offsetInCU: 0xA7F8, offset: 0xA7F8, size: 0x8, addend: 0x0, symName: __ZNSt3__112__to_addressB7v160006IKcEEPT_S3_, symObjAddr: 0x62B0, symBinAddr: 0x10000A820, symSize: 0x10 }
  - { offsetInCU: 0xA860, offset: 0xA860, size: 0x8, addend: 0x0, symName: __ZNSt3__19use_facetB7v160006INS_5ctypeIcEEEERKT_RKNS_6localeE, symObjAddr: 0x6560, symBinAddr: 0x10000AAD0, symSize: 0x30 }
  - { offsetInCU: 0xAD2F, offset: 0xAD2F, size: 0x8, addend: 0x0, symName: __ZNSt3__118__constexpr_strlenB7v160006EPKc, symObjAddr: 0x65F0, symBinAddr: 0x10000AB60, symSize: 0x20 }
  - { offsetInCU: 0xAD5B, offset: 0xAD5B, size: 0x8, addend: 0x0, symName: __ZNSt3__112__to_addressB7v160006IcEEPT_S2_, symObjAddr: 0x66C0, symBinAddr: 0x10000AC30, symSize: 0x10 }
  - { offsetInCU: 0xAF92, offset: 0xAF92, size: 0x8, addend: 0x0, symName: __ZNSt3__120__throw_length_errorB7v160006EPKc, symObjAddr: 0x6BB0, symBinAddr: 0x10000B120, symSize: 0x70 }
  - { offsetInCU: 0xAFED, offset: 0xAFED, size: 0x8, addend: 0x0, symName: __ZNSt3__14copyB7v160006IPKcPcEET0_T_S5_S4_, symObjAddr: 0x6D30, symBinAddr: 0x10000B2A0, symSize: 0x40 }
  - { offsetInCU: 0xB047, offset: 0xB047, size: 0x8, addend: 0x0, symName: __ZNSt3__16__copyB7v160006INS_17_ClassicAlgPolicyEPKcS3_PcEENS_4pairIT0_T2_EES6_T1_S7_, symObjAddr: 0x6D70, symBinAddr: 0x10000B2E0, symSize: 0x40 }
  - { offsetInCU: 0xB0B3, offset: 0xB0B3, size: 0x8, addend: 0x0, symName: __ZNSt3__123__dispatch_copy_or_moveB7v160006INS_17_ClassicAlgPolicyENS_11__copy_loopIS1_EENS_14__copy_trivialEPKcS6_PcEENS_4pairIT2_T4_EES9_T3_SA_, symObjAddr: 0x6DB0, symBinAddr: 0x10000B320, symSize: 0x60 }
  - { offsetInCU: 0xB131, offset: 0xB131, size: 0x8, addend: 0x0, symName: __ZNSt3__121__unwrap_and_dispatchB7v160006INS_10__overloadINS_11__copy_loopINS_17_ClassicAlgPolicyEEENS_14__copy_trivialEEEPKcS8_PcLi0EEENS_4pairIT0_T2_EESB_T1_SC_, symObjAddr: 0x6E10, symBinAddr: 0x10000B380, symSize: 0xB0 }
  - { offsetInCU: 0xB1C0, offset: 0xB1C0, size: 0x8, addend: 0x0, symName: __ZNSt3__114__unwrap_rangeB7v160006IPKcS2_EENS_4pairIT0_S4_EET_S6_, symObjAddr: 0x6EC0, symBinAddr: 0x10000B430, symSize: 0x50 }
  - { offsetInCU: 0xB2FF, offset: 0xB2FF, size: 0x8, addend: 0x0, symName: __ZNSt3__113__unwrap_iterB7v160006IPcNS_18__unwrap_iter_implIS1_Lb1EEELi0EEEDTclsrT0_8__unwrapclsr3stdE7declvalIT_EEEES5_, symObjAddr: 0x6F50, symBinAddr: 0x10000B4C0, symSize: 0x20 }
  - { offsetInCU: 0xB343, offset: 0xB343, size: 0x8, addend: 0x0, symName: __ZNSt3__19make_pairB7v160006IPKcPcEENS_4pairINS_18__unwrap_ref_decayIT_E4typeENS5_IT0_E4typeEEEOS6_OS9_, symObjAddr: 0x6F70, symBinAddr: 0x10000B4E0, symSize: 0x30 }
  - { offsetInCU: 0xB392, offset: 0xB392, size: 0x8, addend: 0x0, symName: __ZNSt3__114__rewrap_rangeB7v160006IPKcS2_EET_S3_T0_, symObjAddr: 0x6FA0, symBinAddr: 0x10000B510, symSize: 0x30 }
  - { offsetInCU: 0xB3DE, offset: 0xB3DE, size: 0x8, addend: 0x0, symName: __ZNSt3__113__rewrap_iterB7v160006IPcS1_NS_18__unwrap_iter_implIS1_Lb1EEEEET_S4_T0_, symObjAddr: 0x6FD0, symBinAddr: 0x10000B540, symSize: 0x50 }
  - { offsetInCU: 0xB433, offset: 0xB433, size: 0x8, addend: 0x0, symName: __ZNSt3__19make_pairB7v160006IPKcS2_EENS_4pairINS_18__unwrap_ref_decayIT_E4typeENS4_IT0_E4typeEEEOS5_OS8_, symObjAddr: 0x7020, symBinAddr: 0x10000B590, symSize: 0x30 }
  - { offsetInCU: 0xB482, offset: 0xB482, size: 0x8, addend: 0x0, symName: __ZNSt3__113__unwrap_iterB7v160006IPKcNS_18__unwrap_iter_implIS2_Lb1EEELi0EEEDTclsrT0_8__unwrapclsr3stdE7declvalIT_EEEES6_, symObjAddr: 0x7050, symBinAddr: 0x10000B5C0, symSize: 0x20 }
  - { offsetInCU: 0xB5C6, offset: 0xB5C6, size: 0x8, addend: 0x0, symName: __ZNSt3__119__copy_trivial_implB7v160006IKccEENS_4pairIPT_PT0_EES4_S4_S6_, symObjAddr: 0x70F0, symBinAddr: 0x10000B660, symSize: 0x70 }
  - { offsetInCU: 0xB62E, offset: 0xB62E, size: 0x8, addend: 0x0, symName: __ZNSt3__19make_pairB7v160006IRPKcPcEENS_4pairINS_18__unwrap_ref_decayIT_E4typeENS6_IT0_E4typeEEEOS7_OSA_, symObjAddr: 0x7160, symBinAddr: 0x10000B6D0, symSize: 0x30 }
  - { offsetInCU: 0xB6D0, offset: 0xB6D0, size: 0x8, addend: 0x0, symName: __ZNSt3__113__rewrap_iterB7v160006IPKcS2_NS_18__unwrap_iter_implIS2_Lb1EEEEET_S5_T0_, symObjAddr: 0x7210, symBinAddr: 0x10000B780, symSize: 0x50 }
  - { offsetInCU: 0xB725, offset: 0xB725, size: 0x8, addend: 0x0, symName: __ZNSt3__16fill_nB7v160006IPcmcEET_S2_T0_RKT1_, symObjAddr: 0x72E0, symBinAddr: 0x10000B850, symSize: 0x40 }
  - { offsetInCU: 0xB788, offset: 0xB788, size: 0x8, addend: 0x0, symName: __ZNSt3__18__fill_nB7v160006IPcmcEET_S2_T0_RKT1_, symObjAddr: 0x7320, symBinAddr: 0x10000B890, symSize: 0x50 }
  - { offsetInCU: 0xB7EB, offset: 0xB7EB, size: 0x8, addend: 0x0, symName: __ZNSt3__121__convert_to_integralB7v160006Em, symObjAddr: 0x7370, symBinAddr: 0x10000B8E0, symSize: 0x10 }
  - { offsetInCU: 0xB817, offset: 0xB817, size: 0x8, addend: 0x0, symName: __ZNSt3__1ltB7v160006IcNS_11char_traitsIcEENS_9allocatorIcEEEEbRKNS_12basic_stringIT_T0_T1_EESB_, symObjAddr: 0x7920, symBinAddr: 0x10000BE90, symSize: 0x30 }
  - { offsetInCU: 0xB893, offset: 0xB893, size: 0x8, addend: 0x0, symName: __ZNSt3__13minB7v160006ImEERKT_S3_S3_, symObjAddr: 0x7B90, symBinAddr: 0x10000C100, symSize: 0x30 }
  - { offsetInCU: 0xB8D6, offset: 0xB8D6, size: 0x8, addend: 0x0, symName: __ZNSt3__118__constexpr_memcmpB7v160006IcEEiPKT_S3_m, symObjAddr: 0x7BC0, symBinAddr: 0x10000C130, symSize: 0x30 }
  - { offsetInCU: 0xB927, offset: 0xB927, size: 0x8, addend: 0x0, symName: __ZNSt3__13minB7v160006ImNS_6__lessImmEEEERKT_S5_S5_T0_, symObjAddr: 0x7BF0, symBinAddr: 0x10000C160, symSize: 0x50 }
  - { offsetInCU: 0xB9DA, offset: 0xB9DA, size: 0x8, addend: 0x0, symName: __ZNSt3__127__tree_balance_after_insertB7v160006IPNS_16__tree_node_baseIPvEEEEvT_S5_, symObjAddr: 0x80B0, symBinAddr: 0x10000C620, symSize: 0x340 }
  - { offsetInCU: 0xBA4E, offset: 0xBA4E, size: 0x8, addend: 0x0, symName: __ZNSt3__120__tree_is_left_childB7v160006IPNS_16__tree_node_baseIPvEEEEbT_, symObjAddr: 0x8430, symBinAddr: 0x10000C9A0, symSize: 0x30 }
  - { offsetInCU: 0xBA83, offset: 0xBA83, size: 0x8, addend: 0x0, symName: __ZNSt3__118__tree_left_rotateB7v160006IPNS_16__tree_node_baseIPvEEEEvT_, symObjAddr: 0x8460, symBinAddr: 0x10000C9D0, symSize: 0xE0 }
  - { offsetInCU: 0xBAC5, offset: 0xBAC5, size: 0x8, addend: 0x0, symName: __ZNSt3__119__tree_right_rotateB7v160006IPNS_16__tree_node_baseIPvEEEEvT_, symObjAddr: 0x8540, symBinAddr: 0x10000CAB0, symSize: 0xC0 }
  - { offsetInCU: 0xBB07, offset: 0xBB07, size: 0x8, addend: 0x0, symName: __ZNSt3__125__debug_db_invalidate_allB7v160006INS_12basic_stringIcNS_11char_traitsIcEENS_9allocatorIcEEEEEEvPT_, symObjAddr: 0x8E70, symBinAddr: 0x10000D3E0, symSize: 0x10 }
  - { offsetInCU: 0xBB38, offset: 0xBB38, size: 0x8, addend: 0x0, symName: __ZNSt3__13maxB7v160006ImEERKT_S3_S3_, symObjAddr: 0x9530, symBinAddr: 0x10000DAA0, symSize: 0x30 }
  - { offsetInCU: 0xBB7B, offset: 0xBB7B, size: 0x8, addend: 0x0, symName: __ZNSt3__13maxB7v160006ImNS_6__lessImmEEEERKT_S5_S5_T0_, symObjAddr: 0x95F0, symBinAddr: 0x10000DB60, symSize: 0x50 }
  - { offsetInCU: 0xBBD5, offset: 0xBBD5, size: 0x8, addend: 0x0, symName: __ZNSt3__119__allocate_at_leastB7v160006INS_9allocatorI8UserDataEEEENS_19__allocation_resultINS_16allocator_traitsIT_E7pointerEEERS6_m, symObjAddr: 0x9730, symBinAddr: 0x10000DCA0, symSize: 0x40 }
  - { offsetInCU: 0xBC18, offset: 0xBC18, size: 0x8, addend: 0x0, symName: __ZNSt3__142__uninitialized_allocator_move_if_noexceptB7v160006INS_9allocatorI8UserDataEENS_16reverse_iteratorIPS2_EES6_S6_EET2_RT_T0_T1_S7_, symObjAddr: 0x98F0, symBinAddr: 0x10000DE60, symSize: 0x190 }
  - { offsetInCU: 0xBCB7, offset: 0xBCB7, size: 0x8, addend: 0x0, symName: __ZNSt3__14swapB7v160006IP8UserDataEEvRT_S4_, symObjAddr: 0x9AD0, symBinAddr: 0x10000E040, symSize: 0x40 }
  - { offsetInCU: 0xBD08, offset: 0xBD08, size: 0x8, addend: 0x0, symName: __ZNSt3__125__debug_db_invalidate_allB7v160006INS_6vectorI8UserDataNS_9allocatorIS2_EEEEEEvPT_, symObjAddr: 0x9BB0, symBinAddr: 0x10000E120, symSize: 0x10 }
  - { offsetInCU: 0xBD39, offset: 0xBD39, size: 0x8, addend: 0x0, symName: __ZNSt3__122__make_exception_guardB7v160006INS_29_AllocatorDestroyRangeReverseINS_9allocatorI8UserDataEENS_16reverse_iteratorIPS3_EEEEEENS_28__exception_guard_exceptionsIT_EESA_, symObjAddr: 0x9BC0, symBinAddr: 0x10000E130, symSize: 0x60 }
  - { offsetInCU: 0xBD6E, offset: 0xBD6E, size: 0x8, addend: 0x0, symName: __ZNSt3__1neB7v160006IP8UserDataS2_EEbRKNS_16reverse_iteratorIT_EERKNS3_IT0_EE, symObjAddr: 0x9C60, symBinAddr: 0x10000E1D0, symSize: 0x40 }
  - { offsetInCU: 0xBDBA, offset: 0xBDBA, size: 0x8, addend: 0x0, symName: __ZNSt3__112__to_addressB7v160006INS_16reverse_iteratorIP8UserDataEEvEENS_5decayIDTclsr19__to_address_helperIT_EE6__callclsr3stdE7declvalIRKS6_EEEEE4typeES8_, symObjAddr: 0x9CA0, symBinAddr: 0x10000E210, symSize: 0x20 }
  - { offsetInCU: 0xBE19, offset: 0xBE19, size: 0x8, addend: 0x0, symName: __ZNSt3__119__allocator_destroyB7v160006INS_9allocatorI8UserDataEENS_16reverse_iteratorINS4_IPS2_EEEES7_EEvRT_T0_T1_, symObjAddr: 0x9F90, symBinAddr: 0x10000E500, symSize: 0x70 }
  - { offsetInCU: 0xBE7C, offset: 0xBE7C, size: 0x8, addend: 0x0, symName: __ZNSt3__1neB7v160006INS_16reverse_iteratorIP8UserDataEES4_EEbRKNS1_IT_EERKNS1_IT0_EE, symObjAddr: 0xA030, symBinAddr: 0x10000E5A0, symSize: 0x50 }
  - { offsetInCU: 0xBEC8, offset: 0xBEC8, size: 0x8, addend: 0x0, symName: __ZNSt3__112__to_addressB7v160006INS_16reverse_iteratorINS1_IP8UserDataEEEEvEENS_5decayIDTclsr19__to_address_helperIT_EE6__callclsr3stdE7declvalIRKS7_EEEEE4typeES9_, symObjAddr: 0xA080, symBinAddr: 0x10000E5F0, symSize: 0x20 }
  - { offsetInCU: 0xC15D, offset: 0xC15D, size: 0x8, addend: 0x0, symName: __ZSt28__throw_bad_array_new_lengthB7v160006v, symObjAddr: 0x4E50, symBinAddr: 0x1000093C0, symSize: 0x40 }
  - { offsetInCU: 0xC327, offset: 0xC327, size: 0x8, addend: 0x0, symName: _g_age, symObjAddr: 0x56FC0, symBinAddr: 0x100014018, symSize: 0x0 }
  - { offsetInCU: 0xC33C, offset: 0xC33C, size: 0x8, addend: 0x0, symName: _g_weight, symObjAddr: 0x56FC8, symBinAddr: 0x100014020, symSize: 0x0 }
  - { offsetInCU: 0xC358, offset: 0xC358, size: 0x8, addend: 0x0, symName: _g_waist, symObjAddr: 0x56FD0, symBinAddr: 0x100014028, symSize: 0x0 }
  - { offsetInCU: 0xC36D, offset: 0xC36D, size: 0x8, addend: 0x0, symName: _g_neck, symObjAddr: 0x56FD8, symBinAddr: 0x100014030, symSize: 0x0 }
  - { offsetInCU: 0xC382, offset: 0xC382, size: 0x8, addend: 0x0, symName: _g_height, symObjAddr: 0x56FE0, symBinAddr: 0x100014038, symSize: 0x0 }
  - { offsetInCU: 0xC397, offset: 0xC397, size: 0x8, addend: 0x0, symName: _g_lifestyle, symObjAddr: 0x56FE8, symBinAddr: 0x100014040, symSize: 0x0 }
  - { offsetInCU: 0xC3AC, offset: 0xC3AC, size: 0x8, addend: 0x0, symName: _g_hip, symObjAddr: 0x57000, symBinAddr: 0x100014058, symSize: 0x0 }
  - { offsetInCU: 0xC3C1, offset: 0xC3C1, size: 0x8, addend: 0x0, symName: _calorieMap, symObjAddr: 0x57008, symBinAddr: 0x100014060, symSize: 0x0 }
  - { offsetInCU: 0xC748, offset: 0xC748, size: 0x8, addend: 0x0, symName: _users, symObjAddr: 0x57020, symBinAddr: 0x100014078, symSize: 0x0 }
  - { offsetInCU: 0xCBB8, offset: 0xCBB8, size: 0x8, addend: 0x0, symName: __ZNSt3__16vectorI8UserDataNS_9allocatorIS1_EEE26__swap_out_circular_bufferERNS_14__split_bufferIS1_RS3_EE, symObjAddr: 0x9350, symBinAddr: 0x10000D8C0, symSize: 0x130 }
  - { offsetInCU: 0xEE55, offset: 0xEE55, size: 0x8, addend: 0x0, symName: __ZNSt3__112basic_stringIcNS_11char_traitsIcEENS_9allocatorIcEEEC1B7v160006Ev, symObjAddr: 0x0, symBinAddr: 0x100004570, symSize: 0x20 }
  - { offsetInCU: 0xEE7E, offset: 0xEE7E, size: 0x8, addend: 0x0, symName: __ZNSt3__13mapINS_12basic_stringIcNS_11char_traitsIcEENS_9allocatorIcEEEEiNS_4lessIS6_EENS4_INS_4pairIKS6_iEEEEEC1B7v160006Ev, symObjAddr: 0x20, symBinAddr: 0x100004590, symSize: 0x20 }
  - { offsetInCU: 0xEEA7, offset: 0xEEA7, size: 0x8, addend: 0x0, symName: __ZNSt3__13mapINS_12basic_stringIcNS_11char_traitsIcEENS_9allocatorIcEEEEiNS_4lessIS6_EENS4_INS_4pairIKS6_iEEEEED1B7v160006Ev, symObjAddr: 0x40, symBinAddr: 0x1000045B0, symSize: 0x20 }
  - { offsetInCU: 0xEED0, offset: 0xEED0, size: 0x8, addend: 0x0, symName: __ZNSt3__16vectorI8UserDataNS_9allocatorIS1_EEEC1B7v160006Ev, symObjAddr: 0x60, symBinAddr: 0x1000045D0, symSize: 0x20 }
  - { offsetInCU: 0xEEF9, offset: 0xEEF9, size: 0x8, addend: 0x0, symName: __ZNSt3__16vectorI8UserDataNS_9allocatorIS1_EEED1B7v160006Ev, symObjAddr: 0x80, symBinAddr: 0x1000045F0, symSize: 0x20 }
  - { offsetInCU: 0xEF22, offset: 0xEF22, size: 0x8, addend: 0x0, symName: __Z16clearInputBufferv, symObjAddr: 0xA0, symBinAddr: 0x100004610, symSize: 0x40 }
  - { offsetInCU: 0xEF3C, offset: 0xEF3C, size: 0x8, addend: 0x0, symName: __ZNSt3__19basic_iosIcNS_11char_traitsIcEEE5clearB7v160006Ej, symObjAddr: 0xE0, symBinAddr: 0x100004650, symSize: 0x30 }
  - { offsetInCU: 0xEF70, offset: 0xEF70, size: 0x8, addend: 0x0, symName: __ZNSt3__114numeric_limitsIlE3maxB7v160006Ev, symObjAddr: 0x110, symBinAddr: 0x100004680, symSize: 0x10 }
  - { offsetInCU: 0xEF83, offset: 0xEF83, size: 0x8, addend: 0x0, symName: __Z19getValidatedIntegerv, symObjAddr: 0x120, symBinAddr: 0x100004690, symSize: 0x60 }
  - { offsetInCU: 0xEFB0, offset: 0xEFB0, size: 0x8, addend: 0x0, symName: __ZNKSt3__19basic_iosIcNS_11char_traitsIcEEEntB7v160006Ev, symObjAddr: 0x180, symBinAddr: 0x1000046F0, symSize: 0x20 }
  - { offsetInCU: 0xEFD4, offset: 0xEFD4, size: 0x8, addend: 0x0, symName: __Z18getValidatedDoublev, symObjAddr: 0x1E0, symBinAddr: 0x100004750, symSize: 0x70 }
  - { offsetInCU: 0xF000, offset: 0xF000, size: 0x8, addend: 0x0, symName: __Z7makeKeyRKNSt3__112basic_stringIcNS_11char_traitsIcEENS_9allocatorIcEEEES7_i, symObjAddr: 0x250, symBinAddr: 0x1000047C0, symSize: 0x190 }
  - { offsetInCU: 0xF048, offset: 0xF048, size: 0x8, addend: 0x0, symName: __Z11getCategorydiii, symObjAddr: 0x600, symBinAddr: 0x100004B70, symSize: 0xD0 }
  - { offsetInCU: 0xF0A4, offset: 0xF0A4, size: 0x8, addend: 0x0, symName: __ZNSt3__112basic_stringIcNS_11char_traitsIcEENS_9allocatorIcEEEC1B7v160006IDnEEPKc, symObjAddr: 0x6D0, symBinAddr: 0x100004C40, symSize: 0x30 }
  - { offsetInCU: 0xF0E1, offset: 0xF0E1, size: 0x8, addend: 0x0, symName: __Z16updateCalorieMapv, symObjAddr: 0x700, symBinAddr: 0x100004C70, symSize: 0x13C0 }
  - { offsetInCU: 0xF0FB, offset: 0xF0FB, size: 0x8, addend: 0x0, symName: __ZNSt3__13mapINS_12basic_stringIcNS_11char_traitsIcEENS_9allocatorIcEEEEiNS_4lessIS6_EENS4_INS_4pairIKS6_iEEEEEixERSA_, symObjAddr: 0x1AC0, symBinAddr: 0x100006030, symSize: 0xB0 }
  - { offsetInCU: 0xF17A, offset: 0xF17A, size: 0x8, addend: 0x0, symName: __Z14getUserDetailsv, symObjAddr: 0x1B70, symBinAddr: 0x1000060E0, symSize: 0x240 }
  - { offsetInCU: 0xF193, offset: 0xF193, size: 0x8, addend: 0x0, symName: __Z7get_bfpddddNSt3__112basic_stringIcNS_11char_traitsIcEENS_9allocatorIcEEEEi, symObjAddr: 0x1EB0, symBinAddr: 0x100006420, symSize: 0x330 }
  - { offsetInCU: 0xF250, offset: 0xF250, size: 0x8, addend: 0x0, symName: __Z18get_daily_caloriesdNSt3__112basic_stringIcNS_11char_traitsIcEENS_9allocatorIcEEEES5_, symObjAddr: 0x2220, symBinAddr: 0x100006790, symSize: 0x140 }
  - { offsetInCU: 0xF2C5, offset: 0xF2C5, size: 0x8, addend: 0x0, symName: __Z9meal_prepiRdS_S_, symObjAddr: 0x2360, symBinAddr: 0x1000068D0, symSize: 0xB0 }
  - { offsetInCU: 0xF349, offset: 0xF349, size: 0x8, addend: 0x0, symName: __Z7displayv, symObjAddr: 0x2410, symBinAddr: 0x100006980, symSize: 0x650 }
  - { offsetInCU: 0xF3B4, offset: 0xF3B4, size: 0x8, addend: 0x0, symName: __ZNSt3__113basic_ostreamIcNS_11char_traitsIcEEElsB7v160006EPFRS3_S4_E, symObjAddr: 0x2AB0, symBinAddr: 0x100007020, symSize: 0x20 }
  - { offsetInCU: 0xF400, offset: 0xF400, size: 0x8, addend: 0x0, symName: __ZNSt3__14pairIiNS_12basic_stringIcNS_11char_traitsIcEENS_9allocatorIcEEEEED1Ev, symObjAddr: 0x2B20, symBinAddr: 0x100007090, symSize: 0x20 }
  - { offsetInCU: 0xF42A, offset: 0xF42A, size: 0x8, addend: 0x0, symName: __Z9serializeRKNSt3__112basic_stringIcNS_11char_traitsIcEENS_9allocatorIcEEEE, symObjAddr: 0x2B40, symBinAddr: 0x1000070B0, symSize: 0x390 }
  - { offsetInCU: 0xF4FE, offset: 0xF4FE, size: 0x8, addend: 0x0, symName: __ZNSt3__114basic_ofstreamIcNS_11char_traitsIcEEEC1Ev, symObjAddr: 0x2ED0, symBinAddr: 0x100007440, symSize: 0x100 }
  - { offsetInCU: 0xF529, offset: 0xF529, size: 0x8, addend: 0x0, symName: __ZNKSt3__114basic_ofstreamIcNS_11char_traitsIcEEE7is_openEv, symObjAddr: 0x2FD0, symBinAddr: 0x100007540, symSize: 0x30 }
  - { offsetInCU: 0xF54F, offset: 0xF54F, size: 0x8, addend: 0x0, symName: __ZNSt3__114basic_ofstreamIcNS_11char_traitsIcEEE5closeEv, symObjAddr: 0x3000, symBinAddr: 0x100007570, symSize: 0x50 }
  - { offsetInCU: 0xF57A, offset: 0xF57A, size: 0x8, addend: 0x0, symName: __ZNSt3__114basic_ofstreamIcNS_11char_traitsIcEEED1Ev, symObjAddr: 0x3050, symBinAddr: 0x1000075C0, symSize: 0x80 }
  - { offsetInCU: 0xF5A5, offset: 0xF5A5, size: 0x8, addend: 0x0, symName: __Z12readFromFileRKNSt3__112basic_stringIcNS_11char_traitsIcEENS_9allocatorIcEEEE, symObjAddr: 0x30D0, symBinAddr: 0x100007640, symSize: 0xB70 }
  - { offsetInCU: 0xF70F, offset: 0xF70F, size: 0x8, addend: 0x0, symName: __ZNSt3__114basic_ifstreamIcNS_11char_traitsIcEEEC1ERKNS_12basic_stringIcS2_NS_9allocatorIcEEEEj, symObjAddr: 0x3C40, symBinAddr: 0x1000081B0, symSize: 0x180 }
  - { offsetInCU: 0xF758, offset: 0xF758, size: 0x8, addend: 0x0, symName: __ZNKSt3__114basic_ifstreamIcNS_11char_traitsIcEEE7is_openEv, symObjAddr: 0x3DC0, symBinAddr: 0x100008330, symSize: 0x30 }
  - { offsetInCU: 0xF77E, offset: 0xF77E, size: 0x8, addend: 0x0, symName: __ZNKSt3__19basic_iosIcNS_11char_traitsIcEEEcvPvB7v160006Ev, symObjAddr: 0x3DF0, symBinAddr: 0x100008360, symSize: 0x50 }
  - { offsetInCU: 0xF802, offset: 0xF802, size: 0x8, addend: 0x0, symName: __ZNSt3__118basic_stringstreamIcNS_11char_traitsIcEENS_9allocatorIcEEEC1B7v160006ERKNS_12basic_stringIcS2_S4_EEj, symObjAddr: 0x3E40, symBinAddr: 0x1000083B0, symSize: 0x120 }
  - { offsetInCU: 0xF84E, offset: 0xF84E, size: 0x8, addend: 0x0, symName: __ZN8UserDataC1Ev, symObjAddr: 0x3F60, symBinAddr: 0x1000084D0, symSize: 0x20 }
  - { offsetInCU: 0xF879, offset: 0xF879, size: 0x8, addend: 0x0, symName: __ZNSt3__16vectorI8UserDataNS_9allocatorIS1_EEE9push_backB7v160006ERKS1_, symObjAddr: 0x41A0, symBinAddr: 0x100008710, symSize: 0x60 }
  - { offsetInCU: 0xF8AE, offset: 0xF8AE, size: 0x8, addend: 0x0, symName: __ZN8UserDataD1Ev, symObjAddr: 0x4200, symBinAddr: 0x100008770, symSize: 0x20 }
  - { offsetInCU: 0xF8DE, offset: 0xF8DE, size: 0x8, addend: 0x0, symName: __ZNSt3__118basic_stringstreamIcNS_11char_traitsIcEENS_9allocatorIcEEED1Ev, symObjAddr: 0x4220, symBinAddr: 0x100008790, symSize: 0x70 }
  - { offsetInCU: 0xF90A, offset: 0xF90A, size: 0x8, addend: 0x0, symName: __ZNSt3__114basic_ifstreamIcNS_11char_traitsIcEEE5closeEv, symObjAddr: 0x4290, symBinAddr: 0x100008800, symSize: 0x50 }
  - { offsetInCU: 0xF935, offset: 0xF935, size: 0x8, addend: 0x0, symName: __ZNSt3__114basic_ifstreamIcNS_11char_traitsIcEEED1Ev, symObjAddr: 0x42E0, symBinAddr: 0x100008850, symSize: 0x80 }
  - { offsetInCU: 0xF961, offset: 0xF961, size: 0x8, addend: 0x0, symName: _main, symObjAddr: 0x4360, symBinAddr: 0x1000088D0, symSize: 0x210 }
  - { offsetInCU: 0xF9D6, offset: 0xF9D6, size: 0x8, addend: 0x0, symName: __ZNKSt3__16vectorI8UserDataNS_9allocatorIS1_EEE4sizeB7v160006Ev, symObjAddr: 0x4570, symBinAddr: 0x100008AE0, symSize: 0x30 }
  - { offsetInCU: 0xF9FB, offset: 0xF9FB, size: 0x8, addend: 0x0, symName: __ZNSt3__16vectorI8UserDataNS_9allocatorIS1_EEEixB7v160006Em, symObjAddr: 0x45A0, symBinAddr: 0x100008B10, symSize: 0x20 }
  - { offsetInCU: 0xFA30, offset: 0xFA30, size: 0x8, addend: 0x0, symName: __ZNSt3__14pairIiNS_12basic_stringIcNS_11char_traitsIcEENS_9allocatorIcEEEEED2Ev, symObjAddr: 0x45C0, symBinAddr: 0x100008B30, symSize: 0x20 }
  - { offsetInCU: 0xFA5B, offset: 0xFA5B, size: 0x8, addend: 0x0, symName: __ZNSt3__114basic_ofstreamIcNS_11char_traitsIcEEED2Ev, symObjAddr: 0x45E0, symBinAddr: 0x100008B50, symSize: 0xA0 }
  - { offsetInCU: 0xFA93, offset: 0xFA93, size: 0x8, addend: 0x0, symName: __ZTv0_n24_NSt3__114basic_ofstreamIcNS_11char_traitsIcEEED1Ev, symObjAddr: 0x4680, symBinAddr: 0x100008BF0, symSize: 0x20 }
  - { offsetInCU: 0xFAAA, offset: 0xFAAA, size: 0x8, addend: 0x0, symName: __ZN8UserDataC2Ev, symObjAddr: 0x46A0, symBinAddr: 0x100008C10, symSize: 0x70 }
  - { offsetInCU: 0xFAD5, offset: 0xFAD5, size: 0x8, addend: 0x0, symName: __ZN8UserDataD2Ev, symObjAddr: 0x4710, symBinAddr: 0x100008C80, symSize: 0x70 }
  - { offsetInCU: 0xFB00, offset: 0xFB00, size: 0x8, addend: 0x0, symName: __ZNSt3__118basic_stringstreamIcNS_11char_traitsIcEENS_9allocatorIcEEED2Ev, symObjAddr: 0x4780, symBinAddr: 0x100008CF0, symSize: 0xA0 }
  - { offsetInCU: 0xFB38, offset: 0xFB38, size: 0x8, addend: 0x0, symName: __ZThn16_NSt3__118basic_stringstreamIcNS_11char_traitsIcEENS_9allocatorIcEEED1Ev, symObjAddr: 0x4820, symBinAddr: 0x100008D90, symSize: 0x20 }
  - { offsetInCU: 0xFB4F, offset: 0xFB4F, size: 0x8, addend: 0x0, symName: __ZTv0_n24_NSt3__118basic_stringstreamIcNS_11char_traitsIcEENS_9allocatorIcEEED1Ev, symObjAddr: 0x4840, symBinAddr: 0x100008DB0, symSize: 0x20 }
  - { offsetInCU: 0xFB6B, offset: 0xFB6B, size: 0x8, addend: 0x0, symName: __ZNSt3__115basic_stringbufIcNS_11char_traitsIcEENS_9allocatorIcEEED1Ev, symObjAddr: 0x4860, symBinAddr: 0x100008DD0, symSize: 0x20 }
  - { offsetInCU: 0xFB97, offset: 0xFB97, size: 0x8, addend: 0x0, symName: __ZNSt3__115basic_stringbufIcNS_11char_traitsIcEENS_9allocatorIcEEED2Ev, symObjAddr: 0x4880, symBinAddr: 0x100008DF0, symSize: 0x70 }
  - { offsetInCU: 0xFBC3, offset: 0xFBC3, size: 0x8, addend: 0x0, symName: __ZNSt3__114basic_ifstreamIcNS_11char_traitsIcEEED2Ev, symObjAddr: 0x48F0, symBinAddr: 0x100008E60, symSize: 0xA0 }
  - { offsetInCU: 0xFBFB, offset: 0xFBFB, size: 0x8, addend: 0x0, symName: __ZTv0_n24_NSt3__114basic_ifstreamIcNS_11char_traitsIcEEED1Ev, symObjAddr: 0x4990, symBinAddr: 0x100008F00, symSize: 0x20 }
  - { offsetInCU: 0xFC12, offset: 0xFC12, size: 0x8, addend: 0x0, symName: __ZNSt3__123__libcpp_numeric_limitsIlLb1EE3maxB7v160006Ev, symObjAddr: 0x49B0, symBinAddr: 0x100008F20, symSize: 0x10 }
  - { offsetInCU: 0xFC26, offset: 0xFC26, size: 0x8, addend: 0x0, symName: __ZNSt3__112basic_stringIcNS_11char_traitsIcEENS_9allocatorIcEEEC2B7v160006Ev, symObjAddr: 0x49C0, symBinAddr: 0x100008F30, symSize: 0x40 }
  - { offsetInCU: 0xFC54, offset: 0xFC54, size: 0x8, addend: 0x0, symName: __ZNSt3__117__compressed_pairINS_12basic_stringIcNS_11char_traitsIcEENS_9allocatorIcEEE5__repES5_EC1B7v160006INS_18__default_init_tagESA_EEOT_OT0_, symObjAddr: 0x4A00, symBinAddr: 0x100008F70, symSize: 0x30 }
  - { offsetInCU: 0xFCAB, offset: 0xFCAB, size: 0x8, addend: 0x0, symName: __ZNSt3__112basic_stringIcNS_11char_traitsIcEENS_9allocatorIcEEE14__default_initB7v160006Ev, symObjAddr: 0x4A40, symBinAddr: 0x100008FB0, symSize: 0xC0 }
  - { offsetInCU: 0xFCFC, offset: 0xFCFC, size: 0x8, addend: 0x0, symName: __ZNSt3__117__compressed_pairINS_12basic_stringIcNS_11char_traitsIcEENS_9allocatorIcEEE5__repES5_EC2B7v160006INS_18__default_init_tagESA_EEOT_OT0_, symObjAddr: 0x4B00, symBinAddr: 0x100009070, symSize: 0x30 }
  - { offsetInCU: 0xFD53, offset: 0xFD53, size: 0x8, addend: 0x0, symName: __ZNSt3__122__compressed_pair_elemINS_12basic_stringIcNS_11char_traitsIcEENS_9allocatorIcEEE5__repELi0ELb0EEC2B7v160006ENS_18__default_init_tagE, symObjAddr: 0x4B30, symBinAddr: 0x1000090A0, symSize: 0x10 }
  - { offsetInCU: 0xFD87, offset: 0xFD87, size: 0x8, addend: 0x0, symName: __ZNSt3__122__compressed_pair_elemINS_9allocatorIcEELi1ELb1EEC2B7v160006ENS_18__default_init_tagE, symObjAddr: 0x4B40, symBinAddr: 0x1000090B0, symSize: 0x20 }
  - { offsetInCU: 0xFDBB, offset: 0xFDBB, size: 0x8, addend: 0x0, symName: __ZNSt3__19allocatorIcEC2B7v160006Ev, symObjAddr: 0x4B60, symBinAddr: 0x1000090D0, symSize: 0x20 }
  - { offsetInCU: 0xFDE4, offset: 0xFDE4, size: 0x8, addend: 0x0, symName: __ZNSt3__116__non_trivial_ifILb1ENS_9allocatorIcEEEC2B7v160006Ev, symObjAddr: 0x4B80, symBinAddr: 0x1000090F0, symSize: 0x10 }
  - { offsetInCU: 0xFE0D, offset: 0xFE0D, size: 0x8, addend: 0x0, symName: __ZNSt3__117__compressed_pairINS_12basic_stringIcNS_11char_traitsIcEENS_9allocatorIcEEE5__repES5_E5firstB7v160006Ev, symObjAddr: 0x4B90, symBinAddr: 0x100009100, symSize: 0x20 }
  - { offsetInCU: 0xFE32, offset: 0xFE32, size: 0x8, addend: 0x0, symName: __ZNSt3__112basic_stringIcNS_11char_traitsIcEENS_9allocatorIcEEE11__recommendB7v160006Em, symObjAddr: 0x4BC0, symBinAddr: 0x100009130, symSize: 0x90 }
  - { offsetInCU: 0xFE65, offset: 0xFE65, size: 0x8, addend: 0x0, symName: __ZNSt3__116allocator_traitsINS_9allocatorIcEEE8allocateB7v160006ERS2_m, symObjAddr: 0x4C50, symBinAddr: 0x1000091C0, symSize: 0x30 }
  - { offsetInCU: 0xFE98, offset: 0xFE98, size: 0x8, addend: 0x0, symName: __ZNSt3__112basic_stringIcNS_11char_traitsIcEENS_9allocatorIcEEE7__allocB7v160006Ev, symObjAddr: 0x4C80, symBinAddr: 0x1000091F0, symSize: 0x20 }
  - { offsetInCU: 0xFEBD, offset: 0xFEBD, size: 0x8, addend: 0x0, symName: __ZNSt3__112basic_stringIcNS_11char_traitsIcEENS_9allocatorIcEEE16__begin_lifetimeB7v160006EPcm, symObjAddr: 0x4CA0, symBinAddr: 0x100009210, symSize: 0x10 }
  - { offsetInCU: 0xFEF0, offset: 0xFEF0, size: 0x8, addend: 0x0, symName: __ZNSt3__112basic_stringIcNS_11char_traitsIcEENS_9allocatorIcEEE18__set_long_pointerB7v160006EPc, symObjAddr: 0x4CB0, symBinAddr: 0x100009220, symSize: 0x30 }
  - { offsetInCU: 0xFF24, offset: 0xFF24, size: 0x8, addend: 0x0, symName: __ZNSt3__112basic_stringIcNS_11char_traitsIcEENS_9allocatorIcEEE14__set_long_capB7v160006Em, symObjAddr: 0x4CE0, symBinAddr: 0x100009250, symSize: 0x70 }
  - { offsetInCU: 0xFF58, offset: 0xFF58, size: 0x8, addend: 0x0, symName: __ZNSt3__112basic_stringIcNS_11char_traitsIcEENS_9allocatorIcEEE15__set_long_sizeB7v160006Em, symObjAddr: 0x4D50, symBinAddr: 0x1000092C0, symSize: 0x30 }
  - { offsetInCU: 0xFF8C, offset: 0xFF8C, size: 0x8, addend: 0x0, symName: __ZNSt3__122__compressed_pair_elemINS_12basic_stringIcNS_11char_traitsIcEENS_9allocatorIcEEE5__repELi0ELb0EE5__getB7v160006Ev, symObjAddr: 0x4D80, symBinAddr: 0x1000092F0, symSize: 0x10 }
  - { offsetInCU: 0xFFB1, offset: 0xFFB1, size: 0x8, addend: 0x0, symName: __ZNSt3__112basic_stringIcNS_11char_traitsIcEENS_9allocatorIcEEE10__align_itB7v160006ILm16EEEmm, symObjAddr: 0x4D90, symBinAddr: 0x100009300, symSize: 0x20 }
  - { offsetInCU: 0xFFDF, offset: 0xFFDF, size: 0x8, addend: 0x0, symName: __ZNSt3__19allocatorIcE8allocateB7v160006Em, symObjAddr: 0x4DB0, symBinAddr: 0x100009320, symSize: 0x80 }
  - { offsetInCU: 0x1001C, offset: 0x1001C, size: 0x8, addend: 0x0, symName: __ZNSt3__116allocator_traitsINS_9allocatorIcEEE8max_sizeB7v160006IS2_vEEmRKS2_, symObjAddr: 0x4E30, symBinAddr: 0x1000093A0, symSize: 0x20 }
  - { offsetInCU: 0x1004A, offset: 0x1004A, size: 0x8, addend: 0x0, symName: __ZNKSt3__19allocatorIcE8max_sizeB7v160006Ev, symObjAddr: 0x4EB0, symBinAddr: 0x100009420, symSize: 0x20 }
  - { offsetInCU: 0x1006F, offset: 0x1006F, size: 0x8, addend: 0x0, symName: __ZNSt3__117__compressed_pairINS_12basic_stringIcNS_11char_traitsIcEENS_9allocatorIcEEE5__repES5_E6secondB7v160006Ev, symObjAddr: 0x4EF0, symBinAddr: 0x100009460, symSize: 0x20 }
  - { offsetInCU: 0x10094, offset: 0x10094, size: 0x8, addend: 0x0, symName: __ZNSt3__122__compressed_pair_elemINS_9allocatorIcEELi1ELb1EE5__getB7v160006Ev, symObjAddr: 0x4F10, symBinAddr: 0x100009480, symSize: 0x10 }
  - { offsetInCU: 0x100B9, offset: 0x100B9, size: 0x8, addend: 0x0, symName: __ZNSt3__13mapINS_12basic_stringIcNS_11char_traitsIcEENS_9allocatorIcEEEEiNS_4lessIS6_EENS4_INS_4pairIKS6_iEEEEEC2B7v160006Ev, symObjAddr: 0x4F20, symBinAddr: 0x100009490, symSize: 0x30 }
  - { offsetInCU: 0x100E2, offset: 0x100E2, size: 0x8, addend: 0x0, symName: __ZNSt3__119__map_value_compareINS_12basic_stringIcNS_11char_traitsIcEENS_9allocatorIcEEEENS_12__value_typeIS6_iEENS_4lessIS6_EELb1EEC1B7v160006ESA_, symObjAddr: 0x4F50, symBinAddr: 0x1000094C0, symSize: 0x20 }
  - { offsetInCU: 0x1011A, offset: 0x1011A, size: 0x8, addend: 0x0, symName: __ZNSt3__16__treeINS_12__value_typeINS_12basic_stringIcNS_11char_traitsIcEENS_9allocatorIcEEEEiEENS_19__map_value_compareIS7_S8_NS_4lessIS7_EELb1EEENS5_IS8_EEEC1ERKSC_, symObjAddr: 0x4F70, symBinAddr: 0x1000094E0, symSize: 0x30 }
  - { offsetInCU: 0x10154, offset: 0x10154, size: 0x8, addend: 0x0, symName: __ZNSt3__119__map_value_compareINS_12basic_stringIcNS_11char_traitsIcEENS_9allocatorIcEEEENS_12__value_typeIS6_iEENS_4lessIS6_EELb1EEC2B7v160006ESA_, symObjAddr: 0x4FA0, symBinAddr: 0x100009510, symSize: 0x10 }
  - { offsetInCU: 0x1018C, offset: 0x1018C, size: 0x8, addend: 0x0, symName: __ZNSt3__16__treeINS_12__value_typeINS_12basic_stringIcNS_11char_traitsIcEENS_9allocatorIcEEEEiEENS_19__map_value_compareIS7_S8_NS_4lessIS7_EELb1EEENS5_IS8_EEEC2ERKSC_, symObjAddr: 0x4FB0, symBinAddr: 0x100009520, symSize: 0x60 }
  - { offsetInCU: 0x101C6, offset: 0x101C6, size: 0x8, addend: 0x0, symName: __ZNSt3__117__compressed_pairINS_15__tree_end_nodeIPNS_16__tree_node_baseIPvEEEENS_9allocatorINS_11__tree_nodeINS_12__value_typeINS_12basic_stringIcNS_11char_traitsIcEENS7_IcEEEEiEES3_EEEEEC1B7v160006ILb1EvEEv, symObjAddr: 0x5010, symBinAddr: 0x100009580, symSize: 0x20 }
  - { offsetInCU: 0x101FF, offset: 0x101FF, size: 0x8, addend: 0x0, symName: __ZNSt3__117__compressed_pairImNS_19__map_value_compareINS_12basic_stringIcNS_11char_traitsIcEENS_9allocatorIcEEEENS_12__value_typeIS7_iEENS_4lessIS7_EELb1EEEEC1B7v160006IiRKSC_EEOT_OT0_, symObjAddr: 0x5030, symBinAddr: 0x1000095A0, symSize: 0x30 }
  - { offsetInCU: 0x10256, offset: 0x10256, size: 0x8, addend: 0x0, symName: __ZNSt3__16__treeINS_12__value_typeINS_12basic_stringIcNS_11char_traitsIcEENS_9allocatorIcEEEEiEENS_19__map_value_compareIS7_S8_NS_4lessIS7_EELb1EEENS5_IS8_EEE10__end_nodeB7v160006Ev, symObjAddr: 0x5060, symBinAddr: 0x1000095D0, symSize: 0x30 }
  - { offsetInCU: 0x1027B, offset: 0x1027B, size: 0x8, addend: 0x0, symName: __ZNSt3__16__treeINS_12__value_typeINS_12basic_stringIcNS_11char_traitsIcEENS_9allocatorIcEEEEiEENS_19__map_value_compareIS7_S8_NS_4lessIS7_EELb1EEENS5_IS8_EEE12__begin_nodeB7v160006Ev, symObjAddr: 0x5090, symBinAddr: 0x100009600, symSize: 0x10 }
  - { offsetInCU: 0x102A0, offset: 0x102A0, size: 0x8, addend: 0x0, symName: __ZNSt3__117__compressed_pairINS_15__tree_end_nodeIPNS_16__tree_node_baseIPvEEEENS_9allocatorINS_11__tree_nodeINS_12__value_typeINS_12basic_stringIcNS_11char_traitsIcEENS7_IcEEEEiEES3_EEEEEC2B7v160006ILb1EvEEv, symObjAddr: 0x50A0, symBinAddr: 0x100009610, symSize: 0x30 }
  - { offsetInCU: 0x102D4, offset: 0x102D4, size: 0x8, addend: 0x0, symName: __ZNSt3__122__compressed_pair_elemINS_15__tree_end_nodeIPNS_16__tree_node_baseIPvEEEELi0ELb0EEC2B7v160006ENS_16__value_init_tagE, symObjAddr: 0x50D0, symBinAddr: 0x100009640, symSize: 0x20 }
  - { offsetInCU: 0x10308, offset: 0x10308, size: 0x8, addend: 0x0, symName: __ZNSt3__122__compressed_pair_elemINS_9allocatorINS_11__tree_nodeINS_12__value_typeINS_12basic_stringIcNS_11char_traitsIcEENS1_IcEEEEiEEPvEEEELi1ELb1EEC2B7v160006ENS_16__value_init_tagE, symObjAddr: 0x50F0, symBinAddr: 0x100009660, symSize: 0x20 }
  - { offsetInCU: 0x1033C, offset: 0x1033C, size: 0x8, addend: 0x0, symName: __ZNSt3__115__tree_end_nodeIPNS_16__tree_node_baseIPvEEEC1B7v160006Ev, symObjAddr: 0x5110, symBinAddr: 0x100009680, symSize: 0x20 }
  - { offsetInCU: 0x10365, offset: 0x10365, size: 0x8, addend: 0x0, symName: __ZNSt3__115__tree_end_nodeIPNS_16__tree_node_baseIPvEEEC2B7v160006Ev, symObjAddr: 0x5130, symBinAddr: 0x1000096A0, symSize: 0x20 }
  - { offsetInCU: 0x1038E, offset: 0x1038E, size: 0x8, addend: 0x0, symName: __ZNSt3__19allocatorINS_11__tree_nodeINS_12__value_typeINS_12basic_stringIcNS_11char_traitsIcEENS0_IcEEEEiEEPvEEEC2B7v160006Ev, symObjAddr: 0x5150, symBinAddr: 0x1000096C0, symSize: 0x20 }
  - { offsetInCU: 0x103B7, offset: 0x103B7, size: 0x8, addend: 0x0, symName: __ZNSt3__116__non_trivial_ifILb1ENS_9allocatorINS_11__tree_nodeINS_12__value_typeINS_12basic_stringIcNS_11char_traitsIcEENS1_IcEEEEiEEPvEEEEEC2B7v160006Ev, symObjAddr: 0x5170, symBinAddr: 0x1000096E0, symSize: 0x10 }
  - { offsetInCU: 0x103E0, offset: 0x103E0, size: 0x8, addend: 0x0, symName: __ZNSt3__117__compressed_pairImNS_19__map_value_compareINS_12basic_stringIcNS_11char_traitsIcEENS_9allocatorIcEEEENS_12__value_typeIS7_iEENS_4lessIS7_EELb1EEEEC2B7v160006IiRKSC_EEOT_OT0_, symObjAddr: 0x5180, symBinAddr: 0x1000096F0, symSize: 0x40 }
  - { offsetInCU: 0x10437, offset: 0x10437, size: 0x8, addend: 0x0, symName: __ZNSt3__122__compressed_pair_elemImLi0ELb0EEC2B7v160006IivEEOT_, symObjAddr: 0x51C0, symBinAddr: 0x100009730, symSize: 0x20 }
  - { offsetInCU: 0x10478, offset: 0x10478, size: 0x8, addend: 0x0, symName: __ZNSt3__122__compressed_pair_elemINS_19__map_value_compareINS_12basic_stringIcNS_11char_traitsIcEENS_9allocatorIcEEEENS_12__value_typeIS7_iEENS_4lessIS7_EELb1EEELi1ELb1EEC2B7v160006IRKSC_vEEOT_, symObjAddr: 0x51E0, symBinAddr: 0x100009750, symSize: 0x10 }
  - { offsetInCU: 0x104B9, offset: 0x104B9, size: 0x8, addend: 0x0, symName: __ZNSt3__114pointer_traitsIPNS_15__tree_end_nodeIPNS_16__tree_node_baseIPvEEEEE10pointer_toB7v160006ERS6_, symObjAddr: 0x51F0, symBinAddr: 0x100009760, symSize: 0x10 }
  - { offsetInCU: 0x104DC, offset: 0x104DC, size: 0x8, addend: 0x0, symName: __ZNSt3__117__compressed_pairINS_15__tree_end_nodeIPNS_16__tree_node_baseIPvEEEENS_9allocatorINS_11__tree_nodeINS_12__value_typeINS_12basic_stringIcNS_11char_traitsIcEENS7_IcEEEEiEES3_EEEEE5firstB7v160006Ev, symObjAddr: 0x5200, symBinAddr: 0x100009770, symSize: 0x20 }
  - { offsetInCU: 0x10501, offset: 0x10501, size: 0x8, addend: 0x0, symName: __ZNSt3__122__compressed_pair_elemINS_15__tree_end_nodeIPNS_16__tree_node_baseIPvEEEELi0ELb0EE5__getB7v160006Ev, symObjAddr: 0x5220, symBinAddr: 0x100009790, symSize: 0x10 }
  - { offsetInCU: 0x10526, offset: 0x10526, size: 0x8, addend: 0x0, symName: __ZNSt3__13mapINS_12basic_stringIcNS_11char_traitsIcEENS_9allocatorIcEEEEiNS_4lessIS6_EENS4_INS_4pairIKS6_iEEEEED2B7v160006Ev, symObjAddr: 0x5230, symBinAddr: 0x1000097A0, symSize: 0x20 }
  - { offsetInCU: 0x1054F, offset: 0x1054F, size: 0x8, addend: 0x0, symName: __ZNSt3__16__treeINS_12__value_typeINS_12basic_stringIcNS_11char_traitsIcEENS_9allocatorIcEEEEiEENS_19__map_value_compareIS7_S8_NS_4lessIS7_EELb1EEENS5_IS8_EEED1Ev, symObjAddr: 0x5250, symBinAddr: 0x1000097C0, symSize: 0x20 }
  - { offsetInCU: 0x1057A, offset: 0x1057A, size: 0x8, addend: 0x0, symName: __ZNSt3__16__treeINS_12__value_typeINS_12basic_stringIcNS_11char_traitsIcEENS_9allocatorIcEEEEiEENS_19__map_value_compareIS7_S8_NS_4lessIS7_EELb1EEENS5_IS8_EEED2Ev, symObjAddr: 0x5270, symBinAddr: 0x1000097E0, symSize: 0x30 }
  - { offsetInCU: 0x105A5, offset: 0x105A5, size: 0x8, addend: 0x0, symName: __ZNSt3__16__treeINS_12__value_typeINS_12basic_stringIcNS_11char_traitsIcEENS_9allocatorIcEEEEiEENS_19__map_value_compareIS7_S8_NS_4lessIS7_EELb1EEENS5_IS8_EEE7destroyEPNS_11__tree_nodeIS8_PvEE, symObjAddr: 0x52A0, symBinAddr: 0x100009810, symSize: 0xC0 }
  - { offsetInCU: 0x105F7, offset: 0x105F7, size: 0x8, addend: 0x0, symName: __ZNKSt3__16__treeINS_12__value_typeINS_12basic_stringIcNS_11char_traitsIcEENS_9allocatorIcEEEEiEENS_19__map_value_compareIS7_S8_NS_4lessIS7_EELb1EEENS5_IS8_EEE6__rootB7v160006Ev, symObjAddr: 0x5360, symBinAddr: 0x1000098D0, symSize: 0x20 }
  - { offsetInCU: 0x1061C, offset: 0x1061C, size: 0x8, addend: 0x0, symName: __ZNSt3__16__treeINS_12__value_typeINS_12basic_stringIcNS_11char_traitsIcEENS_9allocatorIcEEEEiEENS_19__map_value_compareIS7_S8_NS_4lessIS7_EELb1EEENS5_IS8_EEE12__node_allocB7v160006Ev, symObjAddr: 0x5380, symBinAddr: 0x1000098F0, symSize: 0x20 }
  - { offsetInCU: 0x10641, offset: 0x10641, size: 0x8, addend: 0x0, symName: __ZNSt3__116allocator_traitsINS_9allocatorINS_11__tree_nodeINS_12__value_typeINS_12basic_stringIcNS_11char_traitsIcEENS1_IcEEEEiEEPvEEEEE7destroyB7v160006INS_4pairIKS8_iEEvvEEvRSC_PT_, symObjAddr: 0x53A0, symBinAddr: 0x100009910, symSize: 0x20 }
  - { offsetInCU: 0x1067C, offset: 0x1067C, size: 0x8, addend: 0x0, symName: __ZNSt3__122__tree_key_value_typesINS_12__value_typeINS_12basic_stringIcNS_11char_traitsIcEENS_9allocatorIcEEEEiEEE9__get_ptrB7v160006ERS8_, symObjAddr: 0x53C0, symBinAddr: 0x100009930, symSize: 0x20 }
  - { offsetInCU: 0x106A0, offset: 0x106A0, size: 0x8, addend: 0x0, symName: __ZNSt3__116allocator_traitsINS_9allocatorINS_11__tree_nodeINS_12__value_typeINS_12basic_stringIcNS_11char_traitsIcEENS1_IcEEEEiEEPvEEEEE10deallocateB7v160006ERSC_PSB_m, symObjAddr: 0x53E0, symBinAddr: 0x100009950, symSize: 0x30 }
  - { offsetInCU: 0x106E2, offset: 0x106E2, size: 0x8, addend: 0x0, symName: __ZNSt3__117__compressed_pairINS_15__tree_end_nodeIPNS_16__tree_node_baseIPvEEEENS_9allocatorINS_11__tree_nodeINS_12__value_typeINS_12basic_stringIcNS_11char_traitsIcEENS7_IcEEEEiEES3_EEEEE6secondB7v160006Ev, symObjAddr: 0x5410, symBinAddr: 0x100009980, symSize: 0x20 }
  - { offsetInCU: 0x10707, offset: 0x10707, size: 0x8, addend: 0x0, symName: __ZNSt3__122__compressed_pair_elemINS_9allocatorINS_11__tree_nodeINS_12__value_typeINS_12basic_stringIcNS_11char_traitsIcEENS1_IcEEEEiEEPvEEEELi1ELb1EE5__getB7v160006Ev, symObjAddr: 0x5430, symBinAddr: 0x1000099A0, symSize: 0x10 }
  - { offsetInCU: 0x1072C, offset: 0x1072C, size: 0x8, addend: 0x0, symName: __ZNSt3__14pairIKNS_12basic_stringIcNS_11char_traitsIcEENS_9allocatorIcEEEEiED1Ev, symObjAddr: 0x5440, symBinAddr: 0x1000099B0, symSize: 0x20 }
  - { offsetInCU: 0x10757, offset: 0x10757, size: 0x8, addend: 0x0, symName: __ZNSt3__14pairIKNS_12basic_stringIcNS_11char_traitsIcEENS_9allocatorIcEEEEiED2Ev, symObjAddr: 0x5460, symBinAddr: 0x1000099D0, symSize: 0x20 }
  - { offsetInCU: 0x10782, offset: 0x10782, size: 0x8, addend: 0x0, symName: __ZNSt3__112__value_typeINS_12basic_stringIcNS_11char_traitsIcEENS_9allocatorIcEEEEiE11__get_valueB7v160006Ev, symObjAddr: 0x5480, symBinAddr: 0x1000099F0, symSize: 0x10 }
  - { offsetInCU: 0x107A7, offset: 0x107A7, size: 0x8, addend: 0x0, symName: __ZNSt3__19allocatorINS_11__tree_nodeINS_12__value_typeINS_12basic_stringIcNS_11char_traitsIcEENS0_IcEEEEiEEPvEEE10deallocateB7v160006EPSA_m, symObjAddr: 0x5490, symBinAddr: 0x100009A00, symSize: 0x70 }
  - { offsetInCU: 0x107E8, offset: 0x107E8, size: 0x8, addend: 0x0, symName: __ZNKSt3__16__treeINS_12__value_typeINS_12basic_stringIcNS_11char_traitsIcEENS_9allocatorIcEEEEiEENS_19__map_value_compareIS7_S8_NS_4lessIS7_EELb1EEENS5_IS8_EEE10__end_nodeB7v160006Ev, symObjAddr: 0x5570, symBinAddr: 0x100009AE0, symSize: 0x30 }
  - { offsetInCU: 0x1080D, offset: 0x1080D, size: 0x8, addend: 0x0, symName: __ZNKSt3__117__compressed_pairINS_15__tree_end_nodeIPNS_16__tree_node_baseIPvEEEENS_9allocatorINS_11__tree_nodeINS_12__value_typeINS_12basic_stringIcNS_11char_traitsIcEENS7_IcEEEEiEES3_EEEEE5firstB7v160006Ev, symObjAddr: 0x55A0, symBinAddr: 0x100009B10, symSize: 0x20 }
  - { offsetInCU: 0x10832, offset: 0x10832, size: 0x8, addend: 0x0, symName: __ZNKSt3__122__compressed_pair_elemINS_15__tree_end_nodeIPNS_16__tree_node_baseIPvEEEELi0ELb0EE5__getB7v160006Ev, symObjAddr: 0x55C0, symBinAddr: 0x100009B30, symSize: 0x10 }
  - { offsetInCU: 0x10857, offset: 0x10857, size: 0x8, addend: 0x0, symName: __ZNSt3__16vectorI8UserDataNS_9allocatorIS1_EEEC2B7v160006Ev, symObjAddr: 0x55D0, symBinAddr: 0x100009B40, symSize: 0x50 }
  - { offsetInCU: 0x10885, offset: 0x10885, size: 0x8, addend: 0x0, symName: __ZNSt3__117__compressed_pairIP8UserDataNS_9allocatorIS1_EEEC1B7v160006IDnNS_18__default_init_tagEEEOT_OT0_, symObjAddr: 0x5620, symBinAddr: 0x100009B90, symSize: 0x30 }
  - { offsetInCU: 0x108DC, offset: 0x108DC, size: 0x8, addend: 0x0, symName: __ZNSt3__117__compressed_pairIP8UserDataNS_9allocatorIS1_EEEC2B7v160006IDnNS_18__default_init_tagEEEOT_OT0_, symObjAddr: 0x5660, symBinAddr: 0x100009BD0, symSize: 0x40 }
  - { offsetInCU: 0x10933, offset: 0x10933, size: 0x8, addend: 0x0, symName: __ZNSt3__122__compressed_pair_elemIP8UserDataLi0ELb0EEC2B7v160006IDnvEEOT_, symObjAddr: 0x56A0, symBinAddr: 0x100009C10, symSize: 0x20 }
  - { offsetInCU: 0x10974, offset: 0x10974, size: 0x8, addend: 0x0, symName: __ZNSt3__122__compressed_pair_elemINS_9allocatorI8UserDataEELi1ELb1EEC2B7v160006ENS_18__default_init_tagE, symObjAddr: 0x56C0, symBinAddr: 0x100009C30, symSize: 0x20 }
  - { offsetInCU: 0x109A8, offset: 0x109A8, size: 0x8, addend: 0x0, symName: __ZNSt3__19allocatorI8UserDataEC2B7v160006Ev, symObjAddr: 0x56E0, symBinAddr: 0x100009C50, symSize: 0x20 }
  - { offsetInCU: 0x109D1, offset: 0x109D1, size: 0x8, addend: 0x0, symName: __ZNSt3__116__non_trivial_ifILb1ENS_9allocatorI8UserDataEEEC2B7v160006Ev, symObjAddr: 0x5700, symBinAddr: 0x100009C70, symSize: 0x10 }
  - { offsetInCU: 0x109FA, offset: 0x109FA, size: 0x8, addend: 0x0, symName: __ZNSt3__16vectorI8UserDataNS_9allocatorIS1_EEED2B7v160006Ev, symObjAddr: 0x5710, symBinAddr: 0x100009C80, symSize: 0x30 }
  - { offsetInCU: 0x10A23, offset: 0x10A23, size: 0x8, addend: 0x0, symName: __ZNSt3__16vectorI8UserDataNS_9allocatorIS1_EEE16__destroy_vectorC1ERS4_, symObjAddr: 0x5740, symBinAddr: 0x100009CB0, symSize: 0x30 }
  - { offsetInCU: 0x10A5B, offset: 0x10A5B, size: 0x8, addend: 0x0, symName: __ZNSt3__16vectorI8UserDataNS_9allocatorIS1_EEE16__destroy_vectorclB7v160006Ev, symObjAddr: 0x5770, symBinAddr: 0x100009CE0, symSize: 0x90 }
  - { offsetInCU: 0x10A80, offset: 0x10A80, size: 0x8, addend: 0x0, symName: __ZNSt3__16vectorI8UserDataNS_9allocatorIS1_EEE16__destroy_vectorC2ERS4_, symObjAddr: 0x5800, symBinAddr: 0x100009D70, symSize: 0x20 }
  - { offsetInCU: 0x10AB8, offset: 0x10AB8, size: 0x8, addend: 0x0, symName: __ZNKSt3__16vectorI8UserDataNS_9allocatorIS1_EEE17__annotate_deleteB7v160006Ev, symObjAddr: 0x5820, symBinAddr: 0x100009D90, symSize: 0xB0 }
  - { offsetInCU: 0x10ADD, offset: 0x10ADD, size: 0x8, addend: 0x0, symName: __ZNSt3__16vectorI8UserDataNS_9allocatorIS1_EEE7__clearB7v160006Ev, symObjAddr: 0x58E0, symBinAddr: 0x100009E50, symSize: 0x20 }
  - { offsetInCU: 0x10B02, offset: 0x10B02, size: 0x8, addend: 0x0, symName: __ZNSt3__116allocator_traitsINS_9allocatorI8UserDataEEE10deallocateB7v160006ERS3_PS2_m, symObjAddr: 0x5900, symBinAddr: 0x100009E70, symSize: 0x30 }
  - { offsetInCU: 0x10B44, offset: 0x10B44, size: 0x8, addend: 0x0, symName: __ZNSt3__16vectorI8UserDataNS_9allocatorIS1_EEE7__allocB7v160006Ev, symObjAddr: 0x5930, symBinAddr: 0x100009EA0, symSize: 0x20 }
  - { offsetInCU: 0x10B69, offset: 0x10B69, size: 0x8, addend: 0x0, symName: __ZNKSt3__16vectorI8UserDataNS_9allocatorIS1_EEE8capacityB7v160006Ev, symObjAddr: 0x5950, symBinAddr: 0x100009EC0, symSize: 0x40 }
  - { offsetInCU: 0x10B8E, offset: 0x10B8E, size: 0x8, addend: 0x0, symName: __ZNKSt3__16vectorI8UserDataNS_9allocatorIS1_EEE31__annotate_contiguous_containerB7v160006EPKvS6_S6_S6_, symObjAddr: 0x5990, symBinAddr: 0x100009F00, symSize: 0x20 }
  - { offsetInCU: 0x10BE3, offset: 0x10BE3, size: 0x8, addend: 0x0, symName: __ZNKSt3__16vectorI8UserDataNS_9allocatorIS1_EEE4dataB7v160006Ev, symObjAddr: 0x59B0, symBinAddr: 0x100009F20, symSize: 0x20 }
  - { offsetInCU: 0x10C08, offset: 0x10C08, size: 0x8, addend: 0x0, symName: __ZNSt3__16vectorI8UserDataNS_9allocatorIS1_EEE22__base_destruct_at_endB7v160006EPS1_, symObjAddr: 0x59E0, symBinAddr: 0x100009F50, symSize: 0x90 }
  - { offsetInCU: 0x10C4B, offset: 0x10C4B, size: 0x8, addend: 0x0, symName: __ZNSt3__116allocator_traitsINS_9allocatorI8UserDataEEE7destroyB7v160006IS2_vEEvRS3_PT_, symObjAddr: 0x5A70, symBinAddr: 0x100009FE0, symSize: 0x30 }
  - { offsetInCU: 0x10C88, offset: 0x10C88, size: 0x8, addend: 0x0, symName: __ZNSt3__19allocatorI8UserDataE7destroyB7v160006EPS1_, symObjAddr: 0x5AA0, symBinAddr: 0x10000A010, symSize: 0x20 }
  - { offsetInCU: 0x10CBB, offset: 0x10CBB, size: 0x8, addend: 0x0, symName: __ZNSt3__19allocatorI8UserDataE10deallocateB7v160006EPS1_m, symObjAddr: 0x5AC0, symBinAddr: 0x10000A030, symSize: 0x80 }
  - { offsetInCU: 0x10CFC, offset: 0x10CFC, size: 0x8, addend: 0x0, symName: __ZNSt3__117__compressed_pairIP8UserDataNS_9allocatorIS1_EEE6secondB7v160006Ev, symObjAddr: 0x5B40, symBinAddr: 0x10000A0B0, symSize: 0x20 }
  - { offsetInCU: 0x10D21, offset: 0x10D21, size: 0x8, addend: 0x0, symName: __ZNSt3__122__compressed_pair_elemINS_9allocatorI8UserDataEELi1ELb1EE5__getB7v160006Ev, symObjAddr: 0x5B60, symBinAddr: 0x10000A0D0, symSize: 0x10 }
  - { offsetInCU: 0x10D46, offset: 0x10D46, size: 0x8, addend: 0x0, symName: __ZNKSt3__16vectorI8UserDataNS_9allocatorIS1_EEE9__end_capB7v160006Ev, symObjAddr: 0x5B70, symBinAddr: 0x10000A0E0, symSize: 0x20 }
  - { offsetInCU: 0x10D6B, offset: 0x10D6B, size: 0x8, addend: 0x0, symName: __ZNKSt3__117__compressed_pairIP8UserDataNS_9allocatorIS1_EEE5firstB7v160006Ev, symObjAddr: 0x5B90, symBinAddr: 0x10000A100, symSize: 0x20 }
  - { offsetInCU: 0x10D90, offset: 0x10D90, size: 0x8, addend: 0x0, symName: __ZNKSt3__122__compressed_pair_elemIP8UserDataLi0ELb0EE5__getB7v160006Ev, symObjAddr: 0x5BB0, symBinAddr: 0x10000A120, symSize: 0x10 }
  - { offsetInCU: 0x10DB5, offset: 0x10DB5, size: 0x8, addend: 0x0, symName: __ZNKSt3__19basic_iosIcNS_11char_traitsIcEEE4failB7v160006Ev, symObjAddr: 0x5BC0, symBinAddr: 0x10000A130, symSize: 0x20 }
  - { offsetInCU: 0x10DDA, offset: 0x10DDA, size: 0x8, addend: 0x0, symName: __ZNKSt3__18ios_base4failB7v160006Ev, symObjAddr: 0x5BE0, symBinAddr: 0x10000A150, symSize: 0x20 }
  - { offsetInCU: 0x10E00, offset: 0x10E00, size: 0x8, addend: 0x0, symName: __ZNSt3__111char_traitsIcE6lengthEPKc, symObjAddr: 0x5DF0, symBinAddr: 0x10000A360, symSize: 0x40 }
  - { offsetInCU: 0x10E41, offset: 0x10E41, size: 0x8, addend: 0x0, symName: __ZNKSt3__113basic_ostreamIcNS_11char_traitsIcEEE6sentrycvbB7v160006Ev, symObjAddr: 0x5E30, symBinAddr: 0x10000A3A0, symSize: 0x20 }
  - { offsetInCU: 0x10E66, offset: 0x10E66, size: 0x8, addend: 0x0, symName: __ZNSt3__119ostreambuf_iteratorIcNS_11char_traitsIcEEEC1B7v160006ERNS_13basic_ostreamIcS2_EE, symObjAddr: 0x6070, symBinAddr: 0x10000A5E0, symSize: 0x30 }
  - { offsetInCU: 0x10E9D, offset: 0x10E9D, size: 0x8, addend: 0x0, symName: __ZNKSt3__18ios_base5flagsB7v160006Ev, symObjAddr: 0x60A0, symBinAddr: 0x10000A610, symSize: 0x20 }
  - { offsetInCU: 0x10EC3, offset: 0x10EC3, size: 0x8, addend: 0x0, symName: __ZNKSt3__19basic_iosIcNS_11char_traitsIcEEE4fillB7v160006Ev, symObjAddr: 0x60C0, symBinAddr: 0x10000A630, symSize: 0x70 }
  - { offsetInCU: 0x10EE9, offset: 0x10EE9, size: 0x8, addend: 0x0, symName: __ZNKSt3__119ostreambuf_iteratorIcNS_11char_traitsIcEEE6failedB7v160006Ev, symObjAddr: 0x6130, symBinAddr: 0x10000A6A0, symSize: 0x20 }
  - { offsetInCU: 0x10F0E, offset: 0x10F0E, size: 0x8, addend: 0x0, symName: __ZNSt3__19basic_iosIcNS_11char_traitsIcEEE8setstateB7v160006Ej, symObjAddr: 0x6150, symBinAddr: 0x10000A6C0, symSize: 0x30 }
  - { offsetInCU: 0x10F42, offset: 0x10F42, size: 0x8, addend: 0x0, symName: __ZNKSt3__18ios_base5widthB7v160006Ev, symObjAddr: 0x6180, symBinAddr: 0x10000A6F0, symSize: 0x20 }
  - { offsetInCU: 0x10F68, offset: 0x10F68, size: 0x8, addend: 0x0, symName: __ZNSt3__115basic_streambufIcNS_11char_traitsIcEEE5sputnB7v160006EPKcl, symObjAddr: 0x61A0, symBinAddr: 0x10000A710, symSize: 0x30 }
  - { offsetInCU: 0x10FA9, offset: 0x10FA9, size: 0x8, addend: 0x0, symName: __ZNSt3__112basic_stringIcNS_11char_traitsIcEENS_9allocatorIcEEEC1B7v160006Emc, symObjAddr: 0x61D0, symBinAddr: 0x10000A740, symSize: 0x30 }
  - { offsetInCU: 0x10FF0, offset: 0x10FF0, size: 0x8, addend: 0x0, symName: __ZNKSt3__112basic_stringIcNS_11char_traitsIcEENS_9allocatorIcEEE4dataB7v160006Ev, symObjAddr: 0x6200, symBinAddr: 0x10000A770, symSize: 0x30 }
  - { offsetInCU: 0x11015, offset: 0x11015, size: 0x8, addend: 0x0, symName: __ZNSt3__18ios_base5widthB7v160006El, symObjAddr: 0x6230, symBinAddr: 0x10000A7A0, symSize: 0x30 }
  - { offsetInCU: 0x11059, offset: 0x11059, size: 0x8, addend: 0x0, symName: __ZNSt3__112basic_stringIcNS_11char_traitsIcEENS_9allocatorIcEEEC2B7v160006Emc, symObjAddr: 0x6260, symBinAddr: 0x10000A7D0, symSize: 0x50 }
  - { offsetInCU: 0x110A0, offset: 0x110A0, size: 0x8, addend: 0x0, symName: __ZNKSt3__112basic_stringIcNS_11char_traitsIcEENS_9allocatorIcEEE13__get_pointerB7v160006Ev, symObjAddr: 0x62C0, symBinAddr: 0x10000A830, symSize: 0x50 }
  - { offsetInCU: 0x110C5, offset: 0x110C5, size: 0x8, addend: 0x0, symName: __ZNKSt3__112basic_stringIcNS_11char_traitsIcEENS_9allocatorIcEEE9__is_longB7v160006Ev, symObjAddr: 0x6310, symBinAddr: 0x10000A880, symSize: 0x60 }
  - { offsetInCU: 0x110EA, offset: 0x110EA, size: 0x8, addend: 0x0, symName: __ZNKSt3__112basic_stringIcNS_11char_traitsIcEENS_9allocatorIcEEE18__get_long_pointerB7v160006Ev, symObjAddr: 0x6370, symBinAddr: 0x10000A8E0, symSize: 0x20 }
  - { offsetInCU: 0x1110F, offset: 0x1110F, size: 0x8, addend: 0x0, symName: __ZNKSt3__112basic_stringIcNS_11char_traitsIcEENS_9allocatorIcEEE19__get_short_pointerB7v160006Ev, symObjAddr: 0x6390, symBinAddr: 0x10000A900, symSize: 0x30 }
  - { offsetInCU: 0x11134, offset: 0x11134, size: 0x8, addend: 0x0, symName: __ZNKSt3__117__compressed_pairINS_12basic_stringIcNS_11char_traitsIcEENS_9allocatorIcEEE5__repES5_E5firstB7v160006Ev, symObjAddr: 0x63C0, symBinAddr: 0x10000A930, symSize: 0x20 }
  - { offsetInCU: 0x11159, offset: 0x11159, size: 0x8, addend: 0x0, symName: __ZNKSt3__122__compressed_pair_elemINS_12basic_stringIcNS_11char_traitsIcEENS_9allocatorIcEEE5__repELi0ELb0EE5__getB7v160006Ev, symObjAddr: 0x63E0, symBinAddr: 0x10000A950, symSize: 0x10 }
  - { offsetInCU: 0x1117E, offset: 0x1117E, size: 0x8, addend: 0x0, symName: __ZNSt3__114pointer_traitsIPKcE10pointer_toB7v160006ERS1_, symObjAddr: 0x63F0, symBinAddr: 0x10000A960, symSize: 0x10 }
  - { offsetInCU: 0x111A1, offset: 0x111A1, size: 0x8, addend: 0x0, symName: __ZNSt3__119ostreambuf_iteratorIcNS_11char_traitsIcEEEC2B7v160006ERNS_13basic_ostreamIcS2_EE, symObjAddr: 0x6400, symBinAddr: 0x10000A970, symSize: 0x60 }
  - { offsetInCU: 0x111D8, offset: 0x111D8, size: 0x8, addend: 0x0, symName: __ZNKSt3__19basic_iosIcNS_11char_traitsIcEEE5rdbufB7v160006Ev, symObjAddr: 0x6460, symBinAddr: 0x10000A9D0, symSize: 0x20 }
  - { offsetInCU: 0x111FE, offset: 0x111FE, size: 0x8, addend: 0x0, symName: __ZNKSt3__18ios_base5rdbufB7v160006Ev, symObjAddr: 0x6480, symBinAddr: 0x10000A9F0, symSize: 0x20 }
  - { offsetInCU: 0x11223, offset: 0x11223, size: 0x8, addend: 0x0, symName: __ZNSt3__111char_traitsIcE11eq_int_typeEii, symObjAddr: 0x64A0, symBinAddr: 0x10000AA10, symSize: 0x20 }
  - { offsetInCU: 0x11254, offset: 0x11254, size: 0x8, addend: 0x0, symName: __ZNSt3__111char_traitsIcE3eofEv, symObjAddr: 0x64C0, symBinAddr: 0x10000AA30, symSize: 0x10 }
  - { offsetInCU: 0x11268, offset: 0x11268, size: 0x8, addend: 0x0, symName: __ZNKSt3__19basic_iosIcNS_11char_traitsIcEEE5widenB7v160006Ec, symObjAddr: 0x64D0, symBinAddr: 0x10000AA40, symSize: 0x90 }
  - { offsetInCU: 0x112D4, offset: 0x112D4, size: 0x8, addend: 0x0, symName: __ZNKSt3__15ctypeIcE5widenB7v160006Ec, symObjAddr: 0x6590, symBinAddr: 0x10000AB00, symSize: 0x30 }
  - { offsetInCU: 0x11308, offset: 0x11308, size: 0x8, addend: 0x0, symName: __ZNSt3__18ios_base8setstateB7v160006Ej, symObjAddr: 0x65C0, symBinAddr: 0x10000AB30, symSize: 0x30 }
  - { offsetInCU: 0x1133D, offset: 0x1133D, size: 0x8, addend: 0x0, symName: __ZNKSt3__112basic_stringIcNS_11char_traitsIcEENS_9allocatorIcEEE4sizeB7v160006Ev, symObjAddr: 0x6610, symBinAddr: 0x10000AB80, symSize: 0x50 }
  - { offsetInCU: 0x11362, offset: 0x11362, size: 0x8, addend: 0x0, symName: __ZNSt3__116allocator_traitsINS_9allocatorIcEEE37select_on_container_copy_constructionB7v160006IS2_vvEES2_RKS2_, symObjAddr: 0x6660, symBinAddr: 0x10000ABD0, symSize: 0x10 }
  - { offsetInCU: 0x11391, offset: 0x11391, size: 0x8, addend: 0x0, symName: __ZNKSt3__112basic_stringIcNS_11char_traitsIcEENS_9allocatorIcEEE13get_allocatorB7v160006Ev, symObjAddr: 0x6670, symBinAddr: 0x10000ABE0, symSize: 0x20 }
  - { offsetInCU: 0x113B6, offset: 0x113B6, size: 0x8, addend: 0x0, symName: __ZNSt3__112basic_stringIcNS_11char_traitsIcEENS_9allocatorIcEEEC1B7v160006ENS_24__uninitialized_size_tagEmRKS4_, symObjAddr: 0x6690, symBinAddr: 0x10000AC00, symSize: 0x30 }
  - { offsetInCU: 0x11409, offset: 0x11409, size: 0x8, addend: 0x0, symName: __ZNSt3__112basic_stringIcNS_11char_traitsIcEENS_9allocatorIcEEE13__get_pointerB7v160006Ev, symObjAddr: 0x66D0, symBinAddr: 0x10000AC40, symSize: 0x50 }
  - { offsetInCU: 0x1142E, offset: 0x1142E, size: 0x8, addend: 0x0, symName: __ZNSt3__111char_traitsIcE4copyEPcPKcm, symObjAddr: 0x6720, symBinAddr: 0x10000AC90, symSize: 0x90 }
  - { offsetInCU: 0x1146D, offset: 0x1146D, size: 0x8, addend: 0x0, symName: __ZNSt3__111char_traitsIcE6assignEPcmc, symObjAddr: 0x67B0, symBinAddr: 0x10000AD20, symSize: 0x50 }
  - { offsetInCU: 0x114AC, offset: 0x114AC, size: 0x8, addend: 0x0, symName: __ZNKSt3__112basic_stringIcNS_11char_traitsIcEENS_9allocatorIcEEE15__get_long_sizeB7v160006Ev, symObjAddr: 0x6800, symBinAddr: 0x10000AD70, symSize: 0x20 }
  - { offsetInCU: 0x114D1, offset: 0x114D1, size: 0x8, addend: 0x0, symName: __ZNKSt3__112basic_stringIcNS_11char_traitsIcEENS_9allocatorIcEEE16__get_short_sizeB7v160006Ev, symObjAddr: 0x6820, symBinAddr: 0x10000AD90, symSize: 0x30 }
  - { offsetInCU: 0x114F6, offset: 0x114F6, size: 0x8, addend: 0x0, symName: __ZNKSt3__112basic_stringIcNS_11char_traitsIcEENS_9allocatorIcEEE7__allocB7v160006Ev, symObjAddr: 0x6850, symBinAddr: 0x10000ADC0, symSize: 0x20 }
  - { offsetInCU: 0x1151B, offset: 0x1151B, size: 0x8, addend: 0x0, symName: __ZNKSt3__117__compressed_pairINS_12basic_stringIcNS_11char_traitsIcEENS_9allocatorIcEEE5__repES5_E6secondB7v160006Ev, symObjAddr: 0x6870, symBinAddr: 0x10000ADE0, symSize: 0x20 }
  - { offsetInCU: 0x11540, offset: 0x11540, size: 0x8, addend: 0x0, symName: __ZNKSt3__122__compressed_pair_elemINS_9allocatorIcEELi1ELb1EE5__getB7v160006Ev, symObjAddr: 0x6890, symBinAddr: 0x10000AE00, symSize: 0x10 }
  - { offsetInCU: 0x11565, offset: 0x11565, size: 0x8, addend: 0x0, symName: __ZNSt3__112basic_stringIcNS_11char_traitsIcEENS_9allocatorIcEEEC2B7v160006ENS_24__uninitialized_size_tagEmRKS4_, symObjAddr: 0x68A0, symBinAddr: 0x10000AE10, symSize: 0x120 }
  - { offsetInCU: 0x115E6, offset: 0x115E6, size: 0x8, addend: 0x0, symName: __ZNSt3__117__compressed_pairINS_12basic_stringIcNS_11char_traitsIcEENS_9allocatorIcEEE5__repES5_EC1B7v160006INS_18__default_init_tagERKS5_EEOT_OT0_, symObjAddr: 0x69C0, symBinAddr: 0x10000AF30, symSize: 0x30 }
  - { offsetInCU: 0x1163D, offset: 0x1163D, size: 0x8, addend: 0x0, symName: __ZNKSt3__112basic_stringIcNS_11char_traitsIcEENS_9allocatorIcEEE8max_sizeB7v160006Ev, symObjAddr: 0x69F0, symBinAddr: 0x10000AF60, symSize: 0xA0 }
  - { offsetInCU: 0x1168E, offset: 0x1168E, size: 0x8, addend: 0x0, symName: __ZNKSt3__112basic_stringIcNS_11char_traitsIcEENS_9allocatorIcEEE20__throw_length_errorB7v160006Ev, symObjAddr: 0x6A90, symBinAddr: 0x10000B000, symSize: 0x20 }
  - { offsetInCU: 0x116B3, offset: 0x116B3, size: 0x8, addend: 0x0, symName: __ZNSt3__112basic_stringIcNS_11char_traitsIcEENS_9allocatorIcEEE13__fits_in_ssoB7v160006Em, symObjAddr: 0x6AB0, symBinAddr: 0x10000B020, symSize: 0x40 }
  - { offsetInCU: 0x116D7, offset: 0x116D7, size: 0x8, addend: 0x0, symName: __ZNSt3__112basic_stringIcNS_11char_traitsIcEENS_9allocatorIcEEE16__set_short_sizeB7v160006Em, symObjAddr: 0x6AF0, symBinAddr: 0x10000B060, symSize: 0x50 }
  - { offsetInCU: 0x1170B, offset: 0x1170B, size: 0x8, addend: 0x0, symName: __ZNSt3__117__compressed_pairINS_12basic_stringIcNS_11char_traitsIcEENS_9allocatorIcEEE5__repES5_EC2B7v160006INS_18__default_init_tagERKS5_EEOT_OT0_, symObjAddr: 0x6B40, symBinAddr: 0x10000B0B0, symSize: 0x40 }
  - { offsetInCU: 0x11762, offset: 0x11762, size: 0x8, addend: 0x0, symName: __ZNSt3__122__compressed_pair_elemINS_9allocatorIcEELi1ELb1EEC2B7v160006IRKS2_vEEOT_, symObjAddr: 0x6B80, symBinAddr: 0x10000B0F0, symSize: 0x10 }
  - { offsetInCU: 0x117A3, offset: 0x117A3, size: 0x8, addend: 0x0, symName: __ZNSt3__114numeric_limitsImE3maxB7v160006Ev, symObjAddr: 0x6B90, symBinAddr: 0x10000B100, symSize: 0x10 }
  - { offsetInCU: 0x117B7, offset: 0x117B7, size: 0x8, addend: 0x0, symName: __ZNSt3__123__libcpp_numeric_limitsImLb1EE3maxB7v160006Ev, symObjAddr: 0x6BA0, symBinAddr: 0x10000B110, symSize: 0x10 }
  - { offsetInCU: 0x117CB, offset: 0x117CB, size: 0x8, addend: 0x0, symName: __ZNSt12length_errorC1B7v160006EPKc, symObjAddr: 0x6C20, symBinAddr: 0x10000B190, symSize: 0x30 }
  - { offsetInCU: 0x11802, offset: 0x11802, size: 0x8, addend: 0x0, symName: __ZNSt12length_errorC2B7v160006EPKc, symObjAddr: 0x6C50, symBinAddr: 0x10000B1C0, symSize: 0x40 }
  - { offsetInCU: 0x11839, offset: 0x11839, size: 0x8, addend: 0x0, symName: __ZNSt3__112basic_stringIcNS_11char_traitsIcEENS_9allocatorIcEEE18__get_long_pointerB7v160006Ev, symObjAddr: 0x6C90, symBinAddr: 0x10000B200, symSize: 0x20 }
  - { offsetInCU: 0x1185E, offset: 0x1185E, size: 0x8, addend: 0x0, symName: __ZNSt3__112basic_stringIcNS_11char_traitsIcEENS_9allocatorIcEEE19__get_short_pointerB7v160006Ev, symObjAddr: 0x6CB0, symBinAddr: 0x10000B220, symSize: 0x30 }
  - { offsetInCU: 0x11883, offset: 0x11883, size: 0x8, addend: 0x0, symName: __ZNSt3__114pointer_traitsIPcE10pointer_toB7v160006ERc, symObjAddr: 0x6CE0, symBinAddr: 0x10000B250, symSize: 0x10 }
  - { offsetInCU: 0x118DD, offset: 0x118DD, size: 0x8, addend: 0x0, symName: __ZNKSt3__114__copy_trivialclB7v160006IKccLi0EEENS_4pairIPT_PT0_EES5_S5_S7_, symObjAddr: 0x6F10, symBinAddr: 0x10000B480, symSize: 0x40 }
  - { offsetInCU: 0x1195D, offset: 0x1195D, size: 0x8, addend: 0x0, symName: __ZNSt3__14pairIPKcS2_EC1B7v160006ERKS2_S5_, symObjAddr: 0x7070, symBinAddr: 0x10000B5E0, symSize: 0x30 }
  - { offsetInCU: 0x119A2, offset: 0x119A2, size: 0x8, addend: 0x0, symName: __ZNSt3__14pairIPKcS2_EC2B7v160006ERKS2_S5_, symObjAddr: 0x70A0, symBinAddr: 0x10000B610, symSize: 0x30 }
  - { offsetInCU: 0x119E7, offset: 0x119E7, size: 0x8, addend: 0x0, symName: __ZNSt3__118__unwrap_iter_implIPKcLb1EE8__unwrapB7v160006ES2_, symObjAddr: 0x70D0, symBinAddr: 0x10000B640, symSize: 0x20 }
  - { offsetInCU: 0x11A0A, offset: 0x11A0A, size: 0x8, addend: 0x0, symName: __ZNSt3__14pairIPKcPcEC1B7v160006ERKS2_RKS3_, symObjAddr: 0x7190, symBinAddr: 0x10000B700, symSize: 0x30 }
  - { offsetInCU: 0x11A4F, offset: 0x11A4F, size: 0x8, addend: 0x0, symName: __ZNSt3__14pairIPKcPcEC2B7v160006ERKS2_RKS3_, symObjAddr: 0x71C0, symBinAddr: 0x10000B730, symSize: 0x30 }
  - { offsetInCU: 0x11A94, offset: 0x11A94, size: 0x8, addend: 0x0, symName: __ZNSt3__118__unwrap_iter_implIPcLb1EE8__unwrapB7v160006ES1_, symObjAddr: 0x71F0, symBinAddr: 0x10000B760, symSize: 0x20 }
  - { offsetInCU: 0x11AB7, offset: 0x11AB7, size: 0x8, addend: 0x0, symName: __ZNSt3__118__unwrap_iter_implIPKcLb1EE8__rewrapB7v160006ES2_S2_, symObjAddr: 0x7260, symBinAddr: 0x10000B7D0, symSize: 0x40 }
  - { offsetInCU: 0x11AE8, offset: 0x11AE8, size: 0x8, addend: 0x0, symName: __ZNSt3__118__unwrap_iter_implIPcLb1EE8__rewrapB7v160006ES1_S1_, symObjAddr: 0x72A0, symBinAddr: 0x10000B810, symSize: 0x40 }
  - { offsetInCU: 0x11B19, offset: 0x11B19, size: 0x8, addend: 0x0, symName: __ZNSt3__112basic_stringIcNS_11char_traitsIcEENS_9allocatorIcEEEC2B7v160006IDnEEPKc, symObjAddr: 0x7380, symBinAddr: 0x10000B8F0, symSize: 0x60 }
  - { offsetInCU: 0x11B56, offset: 0x11B56, size: 0x8, addend: 0x0, symName: __ZNSt3__16__treeINS_12__value_typeINS_12basic_stringIcNS_11char_traitsIcEENS_9allocatorIcEEEEiEENS_19__map_value_compareIS7_S8_NS_4lessIS7_EELb1EEENS5_IS8_EEE12__find_equalIS7_EERPNS_16__tree_node_baseIPvEERPNS_15__tree_end_nodeISJ_EERKT_, symObjAddr: 0x73E0, symBinAddr: 0x10000B950, symSize: 0x180 }
  - { offsetInCU: 0x11BC1, offset: 0x11BC1, size: 0x8, addend: 0x0, symName: __ZNSt3__13mapINS_12basic_stringIcNS_11char_traitsIcEENS_9allocatorIcEEEEiNS_4lessIS6_EENS4_INS_4pairIKS6_iEEEEE25__construct_node_with_keyERSA_, symObjAddr: 0x7560, symBinAddr: 0x10000BAD0, symSize: 0x140 }
  - { offsetInCU: 0x11C15, offset: 0x11C15, size: 0x8, addend: 0x0, symName: __ZNSt3__16__treeINS_12__value_typeINS_12basic_stringIcNS_11char_traitsIcEENS_9allocatorIcEEEEiEENS_19__map_value_compareIS7_S8_NS_4lessIS7_EELb1EEENS5_IS8_EEE16__insert_node_atEPNS_15__tree_end_nodeIPNS_16__tree_node_baseIPvEEEERSJ_SJ_, symObjAddr: 0x76A0, symBinAddr: 0x10000BC10, symSize: 0xC0 }
  - { offsetInCU: 0x11C68, offset: 0x11C68, size: 0x8, addend: 0x0, symName: __ZNKSt3__110unique_ptrINS_11__tree_nodeINS_12__value_typeINS_12basic_stringIcNS_11char_traitsIcEENS_9allocatorIcEEEEiEEPvEENS_21__map_node_destructorINS6_ISB_EEEEE3getB7v160006Ev, symObjAddr: 0x7760, symBinAddr: 0x10000BCD0, symSize: 0x20 }
  - { offsetInCU: 0x11C8D, offset: 0x11C8D, size: 0x8, addend: 0x0, symName: __ZNSt3__110unique_ptrINS_11__tree_nodeINS_12__value_typeINS_12basic_stringIcNS_11char_traitsIcEENS_9allocatorIcEEEEiEEPvEENS_21__map_node_destructorINS6_ISB_EEEEE7releaseB7v160006Ev, symObjAddr: 0x7780, symBinAddr: 0x10000BCF0, symSize: 0x40 }
  - { offsetInCU: 0x11CC1, offset: 0x11CC1, size: 0x8, addend: 0x0, symName: __ZNSt3__110unique_ptrINS_11__tree_nodeINS_12__value_typeINS_12basic_stringIcNS_11char_traitsIcEENS_9allocatorIcEEEEiEEPvEENS_21__map_node_destructorINS6_ISB_EEEEED1B7v160006Ev, symObjAddr: 0x77C0, symBinAddr: 0x10000BD30, symSize: 0x20 }
  - { offsetInCU: 0x11CEA, offset: 0x11CEA, size: 0x8, addend: 0x0, symName: __ZNKSt3__16__treeINS_12__value_typeINS_12basic_stringIcNS_11char_traitsIcEENS_9allocatorIcEEEEiEENS_19__map_value_compareIS7_S8_NS_4lessIS7_EELb1EEENS5_IS8_EEE10__root_ptrEv, symObjAddr: 0x77E0, symBinAddr: 0x10000BD50, symSize: 0x20 }
  - { offsetInCU: 0x11D0F, offset: 0x11D0F, size: 0x8, addend: 0x0, symName: __ZNSt3__16__treeINS_12__value_typeINS_12basic_stringIcNS_11char_traitsIcEENS_9allocatorIcEEEEiEENS_19__map_value_compareIS7_S8_NS_4lessIS7_EELb1EEENS5_IS8_EEE10value_compB7v160006Ev, symObjAddr: 0x7800, symBinAddr: 0x10000BD70, symSize: 0x20 }
  - { offsetInCU: 0x11D34, offset: 0x11D34, size: 0x8, addend: 0x0, symName: __ZNKSt3__119__map_value_compareINS_12basic_stringIcNS_11char_traitsIcEENS_9allocatorIcEEEENS_12__value_typeIS6_iEENS_4lessIS6_EELb1EEclB7v160006ERKS6_RKS8_, symObjAddr: 0x7820, symBinAddr: 0x10000BD90, symSize: 0x50 }
  - { offsetInCU: 0x11D77, offset: 0x11D77, size: 0x8, addend: 0x0, symName: __ZNKSt3__119__map_value_compareINS_12basic_stringIcNS_11char_traitsIcEENS_9allocatorIcEEEENS_12__value_typeIS6_iEENS_4lessIS6_EELb1EEclB7v160006ERKS8_RKS6_, symObjAddr: 0x7870, symBinAddr: 0x10000BDE0, symSize: 0x40 }
  - { offsetInCU: 0x11DBA, offset: 0x11DBA, size: 0x8, addend: 0x0, symName: __ZNSt3__117__compressed_pairImNS_19__map_value_compareINS_12basic_stringIcNS_11char_traitsIcEENS_9allocatorIcEEEENS_12__value_typeIS7_iEENS_4lessIS7_EELb1EEEE6secondB7v160006Ev, symObjAddr: 0x78B0, symBinAddr: 0x10000BE20, symSize: 0x20 }
  - { offsetInCU: 0x11DDF, offset: 0x11DDF, size: 0x8, addend: 0x0, symName: __ZNSt3__122__compressed_pair_elemINS_19__map_value_compareINS_12basic_stringIcNS_11char_traitsIcEENS_9allocatorIcEEEENS_12__value_typeIS7_iEENS_4lessIS7_EELb1EEELi1ELb1EE5__getB7v160006Ev, symObjAddr: 0x78D0, symBinAddr: 0x10000BE40, symSize: 0x10 }
  - { offsetInCU: 0x11E04, offset: 0x11E04, size: 0x8, addend: 0x0, symName: __ZNKSt3__14lessINS_12basic_stringIcNS_11char_traitsIcEENS_9allocatorIcEEEEEclB7v160006ERKS6_S9_, symObjAddr: 0x78E0, symBinAddr: 0x10000BE50, symSize: 0x30 }
  - { offsetInCU: 0x11E47, offset: 0x11E47, size: 0x8, addend: 0x0, symName: __ZNKSt3__112__value_typeINS_12basic_stringIcNS_11char_traitsIcEENS_9allocatorIcEEEEiE11__get_valueB7v160006Ev, symObjAddr: 0x7910, symBinAddr: 0x10000BE80, symSize: 0x10 }
  - { offsetInCU: 0x11E6C, offset: 0x11E6C, size: 0x8, addend: 0x0, symName: __ZNKSt3__112basic_stringIcNS_11char_traitsIcEENS_9allocatorIcEEE7compareB7v160006ERKS5_, symObjAddr: 0x7950, symBinAddr: 0x10000BEC0, symSize: 0x40 }
  - { offsetInCU: 0x11EA1, offset: 0x11EA1, size: 0x8, addend: 0x0, symName: __ZNKSt3__112basic_stringIcNS_11char_traitsIcEENS_9allocatorIcEEE7compareINS_17basic_string_viewIcS2_EEEENS_9enable_ifIXsr33__can_be_converted_to_string_viewIcS2_T_EE5valueEiE4typeERKSA_, symObjAddr: 0x7990, symBinAddr: 0x10000BF00, symSize: 0x100 }
  - { offsetInCU: 0x11F1C, offset: 0x11F1C, size: 0x8, addend: 0x0, symName: __ZNKSt3__112basic_stringIcNS_11char_traitsIcEENS_9allocatorIcEEEcvNS_17basic_string_viewIcS2_EEB7v160006Ev, symObjAddr: 0x7A90, symBinAddr: 0x10000C000, symSize: 0x50 }
  - { offsetInCU: 0x11F41, offset: 0x11F41, size: 0x8, addend: 0x0, symName: __ZNKSt3__117basic_string_viewIcNS_11char_traitsIcEEE4sizeB7v160006Ev, symObjAddr: 0x7AE0, symBinAddr: 0x10000C050, symSize: 0x20 }
  - { offsetInCU: 0x11F66, offset: 0x11F66, size: 0x8, addend: 0x0, symName: __ZNSt3__111char_traitsIcE7compareEPKcS3_m, symObjAddr: 0x7B00, symBinAddr: 0x10000C070, symSize: 0x70 }
  - { offsetInCU: 0x11FA5, offset: 0x11FA5, size: 0x8, addend: 0x0, symName: __ZNKSt3__117basic_string_viewIcNS_11char_traitsIcEEE4dataB7v160006Ev, symObjAddr: 0x7B70, symBinAddr: 0x10000C0E0, symSize: 0x20 }
  - { offsetInCU: 0x11FD4, offset: 0x11FD4, size: 0x8, addend: 0x0, symName: __ZNKSt3__16__lessImmEclB7v160006ERKmS3_, symObjAddr: 0x7C40, symBinAddr: 0x10000C1B0, symSize: 0x30 }
  - { offsetInCU: 0x12015, offset: 0x12015, size: 0x8, addend: 0x0, symName: __ZNSt3__117basic_string_viewIcNS_11char_traitsIcEEEC1B7v160006EPKcm, symObjAddr: 0x7C70, symBinAddr: 0x10000C1E0, symSize: 0x30 }
  - { offsetInCU: 0x1205C, offset: 0x1205C, size: 0x8, addend: 0x0, symName: __ZNSt3__117basic_string_viewIcNS_11char_traitsIcEEEC2B7v160006EPKcm, symObjAddr: 0x7CA0, symBinAddr: 0x10000C210, symSize: 0x30 }
  - { offsetInCU: 0x120A3, offset: 0x120A3, size: 0x8, addend: 0x0, symName: __ZNSt3__116allocator_traitsINS_9allocatorINS_11__tree_nodeINS_12__value_typeINS_12basic_stringIcNS_11char_traitsIcEENS1_IcEEEEiEEPvEEEEE8allocateB7v160006ERSC_m, symObjAddr: 0x7CD0, symBinAddr: 0x10000C240, symSize: 0x30 }
  - { offsetInCU: 0x120D6, offset: 0x120D6, size: 0x8, addend: 0x0, symName: __ZNSt3__121__map_node_destructorINS_9allocatorINS_11__tree_nodeINS_12__value_typeINS_12basic_stringIcNS_11char_traitsIcEENS1_IcEEEEiEEPvEEEEEC1B7v160006ERSC_, symObjAddr: 0x7D00, symBinAddr: 0x10000C270, symSize: 0x30 }
  - { offsetInCU: 0x12113, offset: 0x12113, size: 0x8, addend: 0x0, symName: __ZNSt3__110unique_ptrINS_11__tree_nodeINS_12__value_typeINS_12basic_stringIcNS_11char_traitsIcEENS_9allocatorIcEEEEiEEPvEENS_21__map_node_destructorINS6_ISB_EEEEEC1B7v160006ILb1EvEEPSB_NS_16__dependent_typeINS_27__unique_ptr_deleter_sfinaeISE_EEXT_EE20__good_rval_ref_typeE, symObjAddr: 0x7D30, symBinAddr: 0x10000C2A0, symSize: 0x30 }
  - { offsetInCU: 0x12168, offset: 0x12168, size: 0x8, addend: 0x0, symName: __ZNSt3__116allocator_traitsINS_9allocatorINS_11__tree_nodeINS_12__value_typeINS_12basic_stringIcNS_11char_traitsIcEENS1_IcEEEEiEEPvEEEEE9constructB7v160006IKS8_JRSF_EvEEvRSC_PT_DpOT0_, symObjAddr: 0x7D60, symBinAddr: 0x10000C2D0, symSize: 0x30 }
  - { offsetInCU: 0x121BF, offset: 0x121BF, size: 0x8, addend: 0x0, symName: __ZNKSt3__110unique_ptrINS_11__tree_nodeINS_12__value_typeINS_12basic_stringIcNS_11char_traitsIcEENS_9allocatorIcEEEEiEEPvEENS_21__map_node_destructorINS6_ISB_EEEEEptB7v160006Ev, symObjAddr: 0x7D90, symBinAddr: 0x10000C300, symSize: 0x20 }
  - { offsetInCU: 0x121E4, offset: 0x121E4, size: 0x8, addend: 0x0, symName: __ZNSt3__110unique_ptrINS_11__tree_nodeINS_12__value_typeINS_12basic_stringIcNS_11char_traitsIcEENS_9allocatorIcEEEEiEEPvEENS_21__map_node_destructorINS6_ISB_EEEEE11get_deleterB7v160006Ev, symObjAddr: 0x7DB0, symBinAddr: 0x10000C320, symSize: 0x20 }
  - { offsetInCU: 0x12209, offset: 0x12209, size: 0x8, addend: 0x0, symName: __ZNSt3__116allocator_traitsINS_9allocatorINS_11__tree_nodeINS_12__value_typeINS_12basic_stringIcNS_11char_traitsIcEENS1_IcEEEEiEEPvEEEEE9constructB7v160006IiJEvEEvRSC_PT_DpOT0_, symObjAddr: 0x7DD0, symBinAddr: 0x10000C340, symSize: 0x30 }
  - { offsetInCU: 0x1224B, offset: 0x1224B, size: 0x8, addend: 0x0, symName: __ZNSt3__19allocatorINS_11__tree_nodeINS_12__value_typeINS_12basic_stringIcNS_11char_traitsIcEENS0_IcEEEEiEEPvEEE8allocateB7v160006Em, symObjAddr: 0x7E00, symBinAddr: 0x10000C370, symSize: 0x80 }
  - { offsetInCU: 0x12288, offset: 0x12288, size: 0x8, addend: 0x0, symName: __ZNSt3__116allocator_traitsINS_9allocatorINS_11__tree_nodeINS_12__value_typeINS_12basic_stringIcNS_11char_traitsIcEENS1_IcEEEEiEEPvEEEEE8max_sizeB7v160006ISC_vEEmRKSC_, symObjAddr: 0x7E80, symBinAddr: 0x10000C3F0, symSize: 0x20 }
  - { offsetInCU: 0x122B6, offset: 0x122B6, size: 0x8, addend: 0x0, symName: __ZNKSt3__19allocatorINS_11__tree_nodeINS_12__value_typeINS_12basic_stringIcNS_11char_traitsIcEENS0_IcEEEEiEEPvEEE8max_sizeB7v160006Ev, symObjAddr: 0x7EA0, symBinAddr: 0x10000C410, symSize: 0x20 }
  - { offsetInCU: 0x122DB, offset: 0x122DB, size: 0x8, addend: 0x0, symName: __ZNSt3__121__map_node_destructorINS_9allocatorINS_11__tree_nodeINS_12__value_typeINS_12basic_stringIcNS_11char_traitsIcEENS1_IcEEEEiEEPvEEEEEC2B7v160006ERSC_, symObjAddr: 0x7EC0, symBinAddr: 0x10000C430, symSize: 0x30 }
  - { offsetInCU: 0x12313, offset: 0x12313, size: 0x8, addend: 0x0, symName: __ZNSt3__110unique_ptrINS_11__tree_nodeINS_12__value_typeINS_12basic_stringIcNS_11char_traitsIcEENS_9allocatorIcEEEEiEEPvEENS_21__map_node_destructorINS6_ISB_EEEEEC2B7v160006ILb1EvEEPSB_NS_16__dependent_typeINS_27__unique_ptr_deleter_sfinaeISE_EEXT_EE20__good_rval_ref_typeE, symObjAddr: 0x7EF0, symBinAddr: 0x10000C460, symSize: 0x50 }
  - { offsetInCU: 0x12363, offset: 0x12363, size: 0x8, addend: 0x0, symName: __ZNSt3__117__compressed_pairIPNS_11__tree_nodeINS_12__value_typeINS_12basic_stringIcNS_11char_traitsIcEENS_9allocatorIcEEEEiEEPvEENS_21__map_node_destructorINS6_ISB_EEEEEC1B7v160006IRSC_SF_EEOT_OT0_, symObjAddr: 0x7F40, symBinAddr: 0x10000C4B0, symSize: 0x30 }
  - { offsetInCU: 0x123BA, offset: 0x123BA, size: 0x8, addend: 0x0, symName: __ZNSt3__117__compressed_pairIPNS_11__tree_nodeINS_12__value_typeINS_12basic_stringIcNS_11char_traitsIcEENS_9allocatorIcEEEEiEEPvEENS_21__map_node_destructorINS6_ISB_EEEEEC2B7v160006IRSC_SF_EEOT_OT0_, symObjAddr: 0x7F70, symBinAddr: 0x10000C4E0, symSize: 0x40 }
  - { offsetInCU: 0x12411, offset: 0x12411, size: 0x8, addend: 0x0, symName: __ZNSt3__122__compressed_pair_elemIPNS_11__tree_nodeINS_12__value_typeINS_12basic_stringIcNS_11char_traitsIcEENS_9allocatorIcEEEEiEEPvEELi0ELb0EEC2B7v160006IRSC_vEEOT_, symObjAddr: 0x7FB0, symBinAddr: 0x10000C520, symSize: 0x20 }
  - { offsetInCU: 0x12452, offset: 0x12452, size: 0x8, addend: 0x0, symName: __ZNSt3__122__compressed_pair_elemINS_21__map_node_destructorINS_9allocatorINS_11__tree_nodeINS_12__value_typeINS_12basic_stringIcNS_11char_traitsIcEENS2_IcEEEEiEEPvEEEEEELi1ELb0EEC2B7v160006ISE_vEEOT_, symObjAddr: 0x7FD0, symBinAddr: 0x10000C540, symSize: 0x30 }
  - { offsetInCU: 0x12493, offset: 0x12493, size: 0x8, addend: 0x0, symName: __ZNSt3__19allocatorINS_11__tree_nodeINS_12__value_typeINS_12basic_stringIcNS_11char_traitsIcEENS0_IcEEEEiEEPvEEE9constructB7v160006IKS7_JRSD_EEEvPT_DpOT0_, symObjAddr: 0x8000, symBinAddr: 0x10000C570, symSize: 0x30 }
  - { offsetInCU: 0x124E8, offset: 0x124E8, size: 0x8, addend: 0x0, symName: __ZNKSt3__117__compressed_pairIPNS_11__tree_nodeINS_12__value_typeINS_12basic_stringIcNS_11char_traitsIcEENS_9allocatorIcEEEEiEEPvEENS_21__map_node_destructorINS6_ISB_EEEEE5firstB7v160006Ev, symObjAddr: 0x8030, symBinAddr: 0x10000C5A0, symSize: 0x20 }
  - { offsetInCU: 0x1250D, offset: 0x1250D, size: 0x8, addend: 0x0, symName: __ZNKSt3__122__compressed_pair_elemIPNS_11__tree_nodeINS_12__value_typeINS_12basic_stringIcNS_11char_traitsIcEENS_9allocatorIcEEEEiEEPvEELi0ELb0EE5__getB7v160006Ev, symObjAddr: 0x8050, symBinAddr: 0x10000C5C0, symSize: 0x10 }
  - { offsetInCU: 0x12532, offset: 0x12532, size: 0x8, addend: 0x0, symName: __ZNSt3__117__compressed_pairIPNS_11__tree_nodeINS_12__value_typeINS_12basic_stringIcNS_11char_traitsIcEENS_9allocatorIcEEEEiEEPvEENS_21__map_node_destructorINS6_ISB_EEEEE6secondB7v160006Ev, symObjAddr: 0x8060, symBinAddr: 0x10000C5D0, symSize: 0x20 }
  - { offsetInCU: 0x12557, offset: 0x12557, size: 0x8, addend: 0x0, symName: __ZNSt3__122__compressed_pair_elemINS_21__map_node_destructorINS_9allocatorINS_11__tree_nodeINS_12__value_typeINS_12basic_stringIcNS_11char_traitsIcEENS2_IcEEEEiEEPvEEEEEELi1ELb0EE5__getB7v160006Ev, symObjAddr: 0x8080, symBinAddr: 0x10000C5F0, symSize: 0x10 }
  - { offsetInCU: 0x1257C, offset: 0x1257C, size: 0x8, addend: 0x0, symName: __ZNSt3__19allocatorINS_11__tree_nodeINS_12__value_typeINS_12basic_stringIcNS_11char_traitsIcEENS0_IcEEEEiEEPvEEE9constructB7v160006IiJEEEvPT_DpOT0_, symObjAddr: 0x8090, symBinAddr: 0x10000C600, symSize: 0x20 }
  - { offsetInCU: 0x125BD, offset: 0x125BD, size: 0x8, addend: 0x0, symName: __ZNSt3__16__treeINS_12__value_typeINS_12basic_stringIcNS_11char_traitsIcEENS_9allocatorIcEEEEiEENS_19__map_value_compareIS7_S8_NS_4lessIS7_EELb1EEENS5_IS8_EEE4sizeB7v160006Ev, symObjAddr: 0x83F0, symBinAddr: 0x10000C960, symSize: 0x20 }
  - { offsetInCU: 0x125E2, offset: 0x125E2, size: 0x8, addend: 0x0, symName: __ZNKSt3__116__tree_node_baseIPvE15__parent_unsafeB7v160006Ev, symObjAddr: 0x8410, symBinAddr: 0x10000C980, symSize: 0x20 }
  - { offsetInCU: 0x12607, offset: 0x12607, size: 0x8, addend: 0x0, symName: __ZNSt3__116__tree_node_baseIPvE12__set_parentB7v160006EPS2_, symObjAddr: 0x8600, symBinAddr: 0x10000CB70, symSize: 0x20 }
  - { offsetInCU: 0x1263B, offset: 0x1263B, size: 0x8, addend: 0x0, symName: __ZNSt3__117__compressed_pairImNS_19__map_value_compareINS_12basic_stringIcNS_11char_traitsIcEENS_9allocatorIcEEEENS_12__value_typeIS7_iEENS_4lessIS7_EELb1EEEE5firstB7v160006Ev, symObjAddr: 0x8620, symBinAddr: 0x10000CB90, symSize: 0x20 }
  - { offsetInCU: 0x12660, offset: 0x12660, size: 0x8, addend: 0x0, symName: __ZNSt3__122__compressed_pair_elemImLi0ELb0EE5__getB7v160006Ev, symObjAddr: 0x8640, symBinAddr: 0x10000CBB0, symSize: 0x10 }
  - { offsetInCU: 0x12685, offset: 0x12685, size: 0x8, addend: 0x0, symName: __ZNSt3__117__compressed_pairIPNS_11__tree_nodeINS_12__value_typeINS_12basic_stringIcNS_11char_traitsIcEENS_9allocatorIcEEEEiEEPvEENS_21__map_node_destructorINS6_ISB_EEEEE5firstB7v160006Ev, symObjAddr: 0x8650, symBinAddr: 0x10000CBC0, symSize: 0x20 }
  - { offsetInCU: 0x126AA, offset: 0x126AA, size: 0x8, addend: 0x0, symName: __ZNSt3__122__compressed_pair_elemIPNS_11__tree_nodeINS_12__value_typeINS_12basic_stringIcNS_11char_traitsIcEENS_9allocatorIcEEEEiEEPvEELi0ELb0EE5__getB7v160006Ev, symObjAddr: 0x8670, symBinAddr: 0x10000CBE0, symSize: 0x10 }
  - { offsetInCU: 0x126CF, offset: 0x126CF, size: 0x8, addend: 0x0, symName: __ZNSt3__110unique_ptrINS_11__tree_nodeINS_12__value_typeINS_12basic_stringIcNS_11char_traitsIcEENS_9allocatorIcEEEEiEEPvEENS_21__map_node_destructorINS6_ISB_EEEEED2B7v160006Ev, symObjAddr: 0x8680, symBinAddr: 0x10000CBF0, symSize: 0x20 }
  - { offsetInCU: 0x126F8, offset: 0x126F8, size: 0x8, addend: 0x0, symName: __ZNSt3__110unique_ptrINS_11__tree_nodeINS_12__value_typeINS_12basic_stringIcNS_11char_traitsIcEENS_9allocatorIcEEEEiEEPvEENS_21__map_node_destructorINS6_ISB_EEEEE5resetB7v160006EPSB_, symObjAddr: 0x86A0, symBinAddr: 0x10000CC10, symSize: 0x70 }
  - { offsetInCU: 0x1273B, offset: 0x1273B, size: 0x8, addend: 0x0, symName: __ZNSt3__121__map_node_destructorINS_9allocatorINS_11__tree_nodeINS_12__value_typeINS_12basic_stringIcNS_11char_traitsIcEENS1_IcEEEEiEEPvEEEEEclB7v160006EPSB_, symObjAddr: 0x8710, symBinAddr: 0x10000CC80, symSize: 0xD0 }
  - { offsetInCU: 0x1276F, offset: 0x1276F, size: 0x8, addend: 0x0, symName: __ZNSt3__116allocator_traitsINS_9allocatorINS_11__tree_nodeINS_12__value_typeINS_12basic_stringIcNS_11char_traitsIcEENS1_IcEEEEiEEPvEEEEE7destroyB7v160006IivvEEvRSC_PT_, symObjAddr: 0x87E0, symBinAddr: 0x10000CD50, symSize: 0x10 }
  - { offsetInCU: 0x127AA, offset: 0x127AA, size: 0x8, addend: 0x0, symName: __ZNSt3__116allocator_traitsINS_9allocatorINS_11__tree_nodeINS_12__value_typeINS_12basic_stringIcNS_11char_traitsIcEENS1_IcEEEEiEEPvEEEEE7destroyB7v160006IKS8_vvEEvRSC_PT_, symObjAddr: 0x87F0, symBinAddr: 0x10000CD60, symSize: 0x20 }
  - { offsetInCU: 0x127E5, offset: 0x127E5, size: 0x8, addend: 0x0, symName: __ZNSt3__14pairIiNS_12basic_stringIcNS_11char_traitsIcEENS_9allocatorIcEEEEEC1B7v160006ERKiRKS6_, symObjAddr: 0x8810, symBinAddr: 0x10000CD80, symSize: 0x30 }
  - { offsetInCU: 0x1282A, offset: 0x1282A, size: 0x8, addend: 0x0, symName: __ZNSt3__14pairIiNS_12basic_stringIcNS_11char_traitsIcEENS_9allocatorIcEEEEEC2B7v160006ERKiRKS6_, symObjAddr: 0x8840, symBinAddr: 0x10000CDB0, symSize: 0x40 }
  - { offsetInCU: 0x1286F, offset: 0x1286F, size: 0x8, addend: 0x0, symName: __ZNSt3__19basic_iosIcNS_11char_traitsIcEEEC2B7v160006Ev, symObjAddr: 0x8880, symBinAddr: 0x10000CDF0, symSize: 0x40 }
  - { offsetInCU: 0x12898, offset: 0x12898, size: 0x8, addend: 0x0, symName: __ZNSt3__113basic_ostreamIcNS_11char_traitsIcEEEC2B7v160006EPNS_15basic_streambufIcS2_EE, symObjAddr: 0x88C0, symBinAddr: 0x10000CE30, symSize: 0x50 }
  - { offsetInCU: 0x128DB, offset: 0x128DB, size: 0x8, addend: 0x0, symName: __ZNSt3__18ios_baseC2B7v160006Ev, symObjAddr: 0x8910, symBinAddr: 0x10000CE80, symSize: 0x20 }
  - { offsetInCU: 0x12904, offset: 0x12904, size: 0x8, addend: 0x0, symName: __ZNSt3__19basic_iosIcNS_11char_traitsIcEEE4initB7v160006EPNS_15basic_streambufIcS2_EE, symObjAddr: 0x8930, symBinAddr: 0x10000CEA0, symSize: 0x50 }
  - { offsetInCU: 0x12939, offset: 0x12939, size: 0x8, addend: 0x0, symName: __ZNKSt3__113basic_filebufIcNS_11char_traitsIcEEE7is_openEv, symObjAddr: 0x8980, symBinAddr: 0x10000CEF0, symSize: 0x20 }
  - { offsetInCU: 0x1295F, offset: 0x1295F, size: 0x8, addend: 0x0, symName: __ZNSt3__113basic_istreamIcNS_11char_traitsIcEEEC2B7v160006EPNS_15basic_streambufIcS2_EE, symObjAddr: 0x89A0, symBinAddr: 0x10000CF10, symSize: 0x50 }
  - { offsetInCU: 0x129A2, offset: 0x129A2, size: 0x8, addend: 0x0, symName: __ZNSt3__113basic_filebufIcNS_11char_traitsIcEEE4openERKNS_12basic_stringIcS2_NS_9allocatorIcEEEEj, symObjAddr: 0x89F0, symBinAddr: 0x10000CF60, symSize: 0x40 }
  - { offsetInCU: 0x129E4, offset: 0x129E4, size: 0x8, addend: 0x0, symName: __ZNKSt3__112basic_stringIcNS_11char_traitsIcEENS_9allocatorIcEEE5c_strB7v160006Ev, symObjAddr: 0x8A30, symBinAddr: 0x10000CFA0, symSize: 0x20 }
  - { offsetInCU: 0x12A09, offset: 0x12A09, size: 0x8, addend: 0x0, symName: __ZNSt3__114basic_iostreamIcNS_11char_traitsIcEEEC2B7v160006EPNS_15basic_streambufIcS2_EE, symObjAddr: 0x8A50, symBinAddr: 0x10000CFC0, symSize: 0xB0 }
  - { offsetInCU: 0x12A4D, offset: 0x12A4D, size: 0x8, addend: 0x0, symName: __ZNSt3__115basic_stringbufIcNS_11char_traitsIcEENS_9allocatorIcEEEC1B7v160006ERKNS_12basic_stringIcS2_S4_EEj, symObjAddr: 0x8B00, symBinAddr: 0x10000D070, symSize: 0x30 }
  - { offsetInCU: 0x12A92, offset: 0x12A92, size: 0x8, addend: 0x0, symName: __ZNSt3__113basic_ostreamIcNS_11char_traitsIcEEEC2B7v160006Ev, symObjAddr: 0x8B30, symBinAddr: 0x10000D0A0, symSize: 0x30 }
  - { offsetInCU: 0x12AC7, offset: 0x12AC7, size: 0x8, addend: 0x0, symName: __ZNSt3__115basic_stringbufIcNS_11char_traitsIcEENS_9allocatorIcEEEC2B7v160006ERKNS_12basic_stringIcS2_S4_EEj, symObjAddr: 0x8B60, symBinAddr: 0x10000D0D0, symSize: 0xD0 }
  - { offsetInCU: 0x12B0C, offset: 0x12B0C, size: 0x8, addend: 0x0, symName: __ZNSt3__112basic_stringIcNS_11char_traitsIcEENS_9allocatorIcEEEC1B7v160006ERKS4_, symObjAddr: 0x8C30, symBinAddr: 0x10000D1A0, symSize: 0x30 }
  - { offsetInCU: 0x12B44, offset: 0x12B44, size: 0x8, addend: 0x0, symName: __ZNSt3__112basic_stringIcNS_11char_traitsIcEENS_9allocatorIcEEEC2B7v160006ERKS4_, symObjAddr: 0x8C60, symBinAddr: 0x10000D1D0, symSize: 0x40 }
  - { offsetInCU: 0x12B9A, offset: 0x12B9A, size: 0x8, addend: 0x0, symName: __ZNKSt3__113basic_istreamIcNS_11char_traitsIcEEE6sentrycvbB7v160006Ev, symObjAddr: 0x8CA0, symBinAddr: 0x10000D210, symSize: 0x20 }
  - { offsetInCU: 0x12BBF, offset: 0x12BBF, size: 0x8, addend: 0x0, symName: __ZNSt3__112basic_stringIcNS_11char_traitsIcEENS_9allocatorIcEEE5clearB7v160006Ev, symObjAddr: 0x8CC0, symBinAddr: 0x10000D230, symSize: 0xA0 }
  - { offsetInCU: 0x12BE5, offset: 0x12BE5, size: 0x8, addend: 0x0, symName: __ZNSt3__115basic_streambufIcNS_11char_traitsIcEEE6sbumpcB7v160006Ev, symObjAddr: 0x8D60, symBinAddr: 0x10000D2D0, symSize: 0x60 }
  - { offsetInCU: 0x12C0A, offset: 0x12C0A, size: 0x8, addend: 0x0, symName: __ZNSt3__111char_traitsIcE12to_char_typeEi, symObjAddr: 0x8DC0, symBinAddr: 0x10000D330, symSize: 0x10 }
  - { offsetInCU: 0x12C2D, offset: 0x12C2D, size: 0x8, addend: 0x0, symName: __ZNSt3__111char_traitsIcE2eqEcc, symObjAddr: 0x8DD0, symBinAddr: 0x10000D340, symSize: 0x30 }
  - { offsetInCU: 0x12C5E, offset: 0x12C5E, size: 0x8, addend: 0x0, symName: __ZNSt3__18ios_base18__setstate_nothrowB7v160006Ej, symObjAddr: 0x8E00, symBinAddr: 0x10000D370, symSize: 0x50 }
  - { offsetInCU: 0x12C92, offset: 0x12C92, size: 0x8, addend: 0x0, symName: __ZNKSt3__19basic_iosIcNS_11char_traitsIcEEE10exceptionsB7v160006Ev, symObjAddr: 0x8E50, symBinAddr: 0x10000D3C0, symSize: 0x20 }
  - { offsetInCU: 0x12CB7, offset: 0x12CB7, size: 0x8, addend: 0x0, symName: __ZNSt3__111char_traitsIcE6assignERcRKc, symObjAddr: 0x8E80, symBinAddr: 0x10000D3F0, symSize: 0x20 }
  - { offsetInCU: 0x12CE8, offset: 0x12CE8, size: 0x8, addend: 0x0, symName: __ZNSt3__111char_traitsIcE11to_int_typeEc, symObjAddr: 0x8EA0, symBinAddr: 0x10000D410, symSize: 0x10 }
  - { offsetInCU: 0x12D0B, offset: 0x12D0B, size: 0x8, addend: 0x0, symName: __ZNKSt3__18ios_base10exceptionsB7v160006Ev, symObjAddr: 0x8EB0, symBinAddr: 0x10000D420, symSize: 0x20 }
  - { offsetInCU: 0x12D31, offset: 0x12D31, size: 0x8, addend: 0x0, symName: __ZNSt3__16vectorI8UserDataNS_9allocatorIS1_EEE9__end_capB7v160006Ev, symObjAddr: 0x8ED0, symBinAddr: 0x10000D440, symSize: 0x20 }
  - { offsetInCU: 0x12D56, offset: 0x12D56, size: 0x8, addend: 0x0, symName: __ZNSt3__16vectorI8UserDataNS_9allocatorIS1_EEE22__construct_one_at_endB7v160006IJRKS1_EEEvDpOT_, symObjAddr: 0x8EF0, symBinAddr: 0x10000D460, symSize: 0xA0 }
  - { offsetInCU: 0x12DA4, offset: 0x12DA4, size: 0x8, addend: 0x0, symName: __ZNSt3__16vectorI8UserDataNS_9allocatorIS1_EEE21__push_back_slow_pathIRKS1_EEvOT_, symObjAddr: 0x8F90, symBinAddr: 0x10000D500, symSize: 0xE0 }
  - { offsetInCU: 0x12E00, offset: 0x12E00, size: 0x8, addend: 0x0, symName: __ZNSt3__117__compressed_pairIP8UserDataNS_9allocatorIS1_EEE5firstB7v160006Ev, symObjAddr: 0x9070, symBinAddr: 0x10000D5E0, symSize: 0x20 }
  - { offsetInCU: 0x12E25, offset: 0x12E25, size: 0x8, addend: 0x0, symName: __ZNSt3__122__compressed_pair_elemIP8UserDataLi0ELb0EE5__getB7v160006Ev, symObjAddr: 0x9090, symBinAddr: 0x10000D600, symSize: 0x10 }
  - { offsetInCU: 0x12E63, offset: 0x12E63, size: 0x8, addend: 0x0, symName: __ZNSt3__16vectorI8UserDataNS_9allocatorIS1_EEE21_ConstructTransactionC1B7v160006ERS4_m, symObjAddr: 0x90A0, symBinAddr: 0x10000D610, symSize: 0x30 }
  - { offsetInCU: 0x12EAA, offset: 0x12EAA, size: 0x8, addend: 0x0, symName: __ZNSt3__116allocator_traitsINS_9allocatorI8UserDataEEE9constructB7v160006IS2_JRKS2_EvEEvRS3_PT_DpOT0_, symObjAddr: 0x90D0, symBinAddr: 0x10000D640, symSize: 0x30 }
  - { offsetInCU: 0x12F01, offset: 0x12F01, size: 0x8, addend: 0x0, symName: __ZNSt3__16vectorI8UserDataNS_9allocatorIS1_EEE21_ConstructTransactionD1B7v160006Ev, symObjAddr: 0x9100, symBinAddr: 0x10000D670, symSize: 0x20 }
  - { offsetInCU: 0x12F2A, offset: 0x12F2A, size: 0x8, addend: 0x0, symName: __ZNSt3__16vectorI8UserDataNS_9allocatorIS1_EEE21_ConstructTransactionC2B7v160006ERS4_m, symObjAddr: 0x9120, symBinAddr: 0x10000D690, symSize: 0x40 }
  - { offsetInCU: 0x12F71, offset: 0x12F71, size: 0x8, addend: 0x0, symName: __ZNSt3__19allocatorI8UserDataE9constructB7v160006IS1_JRKS1_EEEvPT_DpOT0_, symObjAddr: 0x9160, symBinAddr: 0x10000D6D0, symSize: 0x30 }
  - { offsetInCU: 0x12FC6, offset: 0x12FC6, size: 0x8, addend: 0x0, symName: __ZN8UserDataC1ERKS_, symObjAddr: 0x9190, symBinAddr: 0x10000D700, symSize: 0x30 }
  - { offsetInCU: 0x12FFA, offset: 0x12FFA, size: 0x8, addend: 0x0, symName: __ZN8UserDataC2ERKS_, symObjAddr: 0x91C0, symBinAddr: 0x10000D730, symSize: 0x90 }
  - { offsetInCU: 0x1302E, offset: 0x1302E, size: 0x8, addend: 0x0, symName: __ZNSt3__16vectorI8UserDataNS_9allocatorIS1_EEE21_ConstructTransactionD2B7v160006Ev, symObjAddr: 0x9250, symBinAddr: 0x10000D7C0, symSize: 0x20 }
  - { offsetInCU: 0x13057, offset: 0x13057, size: 0x8, addend: 0x0, symName: __ZNKSt3__16vectorI8UserDataNS_9allocatorIS1_EEE11__recommendB7v160006Em, symObjAddr: 0x9270, symBinAddr: 0x10000D7E0, symSize: 0xA0 }
  - { offsetInCU: 0x130AA, offset: 0x130AA, size: 0x8, addend: 0x0, symName: __ZNSt3__114__split_bufferI8UserDataRNS_9allocatorIS1_EEEC1EmmS4_, symObjAddr: 0x9310, symBinAddr: 0x10000D880, symSize: 0x40 }
  - { offsetInCU: 0x130FF, offset: 0x130FF, size: 0x8, addend: 0x0, symName: __ZNSt3__114__split_bufferI8UserDataRNS_9allocatorIS1_EEED1Ev, symObjAddr: 0x9480, symBinAddr: 0x10000D9F0, symSize: 0x20 }
  - { offsetInCU: 0x1312A, offset: 0x1312A, size: 0x8, addend: 0x0, symName: __ZNKSt3__16vectorI8UserDataNS_9allocatorIS1_EEE8max_sizeEv, symObjAddr: 0x94A0, symBinAddr: 0x10000DA10, symSize: 0x70 }
  - { offsetInCU: 0x13150, offset: 0x13150, size: 0x8, addend: 0x0, symName: __ZNKSt3__16vectorI8UserDataNS_9allocatorIS1_EEE20__throw_length_errorB7v160006Ev, symObjAddr: 0x9510, symBinAddr: 0x10000DA80, symSize: 0x20 }
  - { offsetInCU: 0x1317F, offset: 0x1317F, size: 0x8, addend: 0x0, symName: __ZNSt3__116allocator_traitsINS_9allocatorI8UserDataEEE8max_sizeB7v160006IS3_vEEmRKS3_, symObjAddr: 0x9560, symBinAddr: 0x10000DAD0, symSize: 0x20 }
  - { offsetInCU: 0x131AD, offset: 0x131AD, size: 0x8, addend: 0x0, symName: __ZNKSt3__16vectorI8UserDataNS_9allocatorIS1_EEE7__allocB7v160006Ev, symObjAddr: 0x9580, symBinAddr: 0x10000DAF0, symSize: 0x20 }
  - { offsetInCU: 0x131D2, offset: 0x131D2, size: 0x8, addend: 0x0, symName: __ZNKSt3__19allocatorI8UserDataE8max_sizeB7v160006Ev, symObjAddr: 0x95A0, symBinAddr: 0x10000DB10, symSize: 0x20 }
  - { offsetInCU: 0x131F7, offset: 0x131F7, size: 0x8, addend: 0x0, symName: __ZNKSt3__117__compressed_pairIP8UserDataNS_9allocatorIS1_EEE6secondB7v160006Ev, symObjAddr: 0x95C0, symBinAddr: 0x10000DB30, symSize: 0x20 }
  - { offsetInCU: 0x1321C, offset: 0x1321C, size: 0x8, addend: 0x0, symName: __ZNKSt3__122__compressed_pair_elemINS_9allocatorI8UserDataEELi1ELb1EE5__getB7v160006Ev, symObjAddr: 0x95E0, symBinAddr: 0x10000DB50, symSize: 0x10 }
  - { offsetInCU: 0x13241, offset: 0x13241, size: 0x8, addend: 0x0, symName: __ZNSt3__114__split_bufferI8UserDataRNS_9allocatorIS1_EEEC2EmmS4_, symObjAddr: 0x9640, symBinAddr: 0x10000DBB0, symSize: 0xC0 }
  - { offsetInCU: 0x132B3, offset: 0x132B3, size: 0x8, addend: 0x0, symName: __ZNSt3__117__compressed_pairIP8UserDataRNS_9allocatorIS1_EEEC1B7v160006IDnS5_EEOT_OT0_, symObjAddr: 0x9700, symBinAddr: 0x10000DC70, symSize: 0x30 }
  - { offsetInCU: 0x1330A, offset: 0x1330A, size: 0x8, addend: 0x0, symName: __ZNSt3__114__split_bufferI8UserDataRNS_9allocatorIS1_EEE7__allocB7v160006Ev, symObjAddr: 0x9770, symBinAddr: 0x10000DCE0, symSize: 0x20 }
  - { offsetInCU: 0x1332F, offset: 0x1332F, size: 0x8, addend: 0x0, symName: __ZNSt3__114__split_bufferI8UserDataRNS_9allocatorIS1_EEE9__end_capB7v160006Ev, symObjAddr: 0x9790, symBinAddr: 0x10000DD00, symSize: 0x20 }
  - { offsetInCU: 0x13354, offset: 0x13354, size: 0x8, addend: 0x0, symName: __ZNSt3__117__compressed_pairIP8UserDataRNS_9allocatorIS1_EEEC2B7v160006IDnS5_EEOT_OT0_, symObjAddr: 0x97B0, symBinAddr: 0x10000DD20, symSize: 0x40 }
  - { offsetInCU: 0x133AB, offset: 0x133AB, size: 0x8, addend: 0x0, symName: __ZNSt3__122__compressed_pair_elemIRNS_9allocatorI8UserDataEELi1ELb0EEC2B7v160006IS4_vEEOT_, symObjAddr: 0x97F0, symBinAddr: 0x10000DD60, symSize: 0x20 }
  - { offsetInCU: 0x133EC, offset: 0x133EC, size: 0x8, addend: 0x0, symName: __ZNSt3__19allocatorI8UserDataE8allocateB7v160006Em, symObjAddr: 0x9810, symBinAddr: 0x10000DD80, symSize: 0x80 }
  - { offsetInCU: 0x1341F, offset: 0x1341F, size: 0x8, addend: 0x0, symName: __ZNSt3__117__compressed_pairIP8UserDataRNS_9allocatorIS1_EEE6secondB7v160006Ev, symObjAddr: 0x9890, symBinAddr: 0x10000DE00, symSize: 0x20 }
  - { offsetInCU: 0x13444, offset: 0x13444, size: 0x8, addend: 0x0, symName: __ZNSt3__122__compressed_pair_elemIRNS_9allocatorI8UserDataEELi1ELb0EE5__getB7v160006Ev, symObjAddr: 0x98B0, symBinAddr: 0x10000DE20, symSize: 0x20 }
  - { offsetInCU: 0x13469, offset: 0x13469, size: 0x8, addend: 0x0, symName: __ZNSt3__117__compressed_pairIP8UserDataRNS_9allocatorIS1_EEE5firstB7v160006Ev, symObjAddr: 0x98D0, symBinAddr: 0x10000DE40, symSize: 0x20 }
  - { offsetInCU: 0x1348E, offset: 0x1348E, size: 0x8, addend: 0x0, symName: __ZNSt3__116reverse_iteratorIP8UserDataEC1B7v160006ES2_, symObjAddr: 0x9A80, symBinAddr: 0x10000DFF0, symSize: 0x30 }
  - { offsetInCU: 0x134C5, offset: 0x134C5, size: 0x8, addend: 0x0, symName: __ZNKSt3__116reverse_iteratorIP8UserDataE4baseB7v160006Ev, symObjAddr: 0x9AB0, symBinAddr: 0x10000E020, symSize: 0x20 }
  - { offsetInCU: 0x134EA, offset: 0x134EA, size: 0x8, addend: 0x0, symName: __ZNKSt3__16vectorI8UserDataNS_9allocatorIS1_EEE14__annotate_newB7v160006Em, symObjAddr: 0x9B10, symBinAddr: 0x10000E080, symSize: 0xA0 }
  - { offsetInCU: 0x1351E, offset: 0x1351E, size: 0x8, addend: 0x0, symName: __ZNSt3__129_AllocatorDestroyRangeReverseINS_9allocatorI8UserDataEENS_16reverse_iteratorIPS2_EEEC1B7v160006ERS3_RS6_S9_, symObjAddr: 0x9C20, symBinAddr: 0x10000E190, symSize: 0x40 }
  - { offsetInCU: 0x13574, offset: 0x13574, size: 0x8, addend: 0x0, symName: __ZNKSt3__116reverse_iteratorIP8UserDataEdeB7v160006Ev, symObjAddr: 0x9CC0, symBinAddr: 0x10000E230, symSize: 0x30 }
  - { offsetInCU: 0x135A7, offset: 0x135A7, size: 0x8, addend: 0x0, symName: __ZNSt3__116reverse_iteratorIP8UserDataEppB7v160006Ev, symObjAddr: 0x9CF0, symBinAddr: 0x10000E260, symSize: 0x20 }
  - { offsetInCU: 0x135CC, offset: 0x135CC, size: 0x8, addend: 0x0, symName: __ZNSt3__128__exception_guard_exceptionsINS_29_AllocatorDestroyRangeReverseINS_9allocatorI8UserDataEENS_16reverse_iteratorIPS3_EEEEE10__completeB7v160006Ev, symObjAddr: 0x9D10, symBinAddr: 0x10000E280, symSize: 0x20 }
  - { offsetInCU: 0x135F1, offset: 0x135F1, size: 0x8, addend: 0x0, symName: __ZNSt3__128__exception_guard_exceptionsINS_29_AllocatorDestroyRangeReverseINS_9allocatorI8UserDataEENS_16reverse_iteratorIPS3_EEEEED1B7v160006Ev, symObjAddr: 0x9D30, symBinAddr: 0x10000E2A0, symSize: 0x20 }
  - { offsetInCU: 0x1361A, offset: 0x1361A, size: 0x8, addend: 0x0, symName: __ZNSt3__128__exception_guard_exceptionsINS_29_AllocatorDestroyRangeReverseINS_9allocatorI8UserDataEENS_16reverse_iteratorIPS3_EEEEEC1B7v160006ES8_, symObjAddr: 0x9D50, symBinAddr: 0x10000E2C0, symSize: 0x40 }
  - { offsetInCU: 0x13651, offset: 0x13651, size: 0x8, addend: 0x0, symName: __ZNSt3__128__exception_guard_exceptionsINS_29_AllocatorDestroyRangeReverseINS_9allocatorI8UserDataEENS_16reverse_iteratorIPS3_EEEEEC2B7v160006ES8_, symObjAddr: 0x9D90, symBinAddr: 0x10000E300, symSize: 0x30 }
  - { offsetInCU: 0x13688, offset: 0x13688, size: 0x8, addend: 0x0, symName: __ZNSt3__129_AllocatorDestroyRangeReverseINS_9allocatorI8UserDataEENS_16reverse_iteratorIPS2_EEEC2B7v160006ERS3_RS6_S9_, symObjAddr: 0x9DC0, symBinAddr: 0x10000E330, symSize: 0x40 }
  - { offsetInCU: 0x136E3, offset: 0x136E3, size: 0x8, addend: 0x0, symName: __ZNSt3__119__to_address_helperINS_16reverse_iteratorIP8UserDataEEvE6__callB7v160006ERKS4_, symObjAddr: 0x9E00, symBinAddr: 0x10000E370, symSize: 0x50 }
  - { offsetInCU: 0x13706, offset: 0x13706, size: 0x8, addend: 0x0, symName: __ZNKSt3__116reverse_iteratorIP8UserDataEptB7v160006Ev, symObjAddr: 0x9E50, symBinAddr: 0x10000E3C0, symSize: 0x20 }
  - { offsetInCU: 0x1372B, offset: 0x1372B, size: 0x8, addend: 0x0, symName: __ZNSt3__128__exception_guard_exceptionsINS_29_AllocatorDestroyRangeReverseINS_9allocatorI8UserDataEENS_16reverse_iteratorIPS3_EEEEED2B7v160006Ev, symObjAddr: 0x9E70, symBinAddr: 0x10000E3E0, symSize: 0x30 }
  - { offsetInCU: 0x13754, offset: 0x13754, size: 0x8, addend: 0x0, symName: __ZNKSt3__129_AllocatorDestroyRangeReverseINS_9allocatorI8UserDataEENS_16reverse_iteratorIPS2_EEEclB7v160006Ev, symObjAddr: 0x9EA0, symBinAddr: 0x10000E410, symSize: 0xF0 }
  - { offsetInCU: 0x1377A, offset: 0x1377A, size: 0x8, addend: 0x0, symName: __ZNSt3__116reverse_iteratorINS0_IP8UserDataEEEC1B7v160006ES3_, symObjAddr: 0xA000, symBinAddr: 0x10000E570, symSize: 0x30 }
  - { offsetInCU: 0x137B1, offset: 0x137B1, size: 0x8, addend: 0x0, symName: __ZNSt3__116reverse_iteratorINS0_IP8UserDataEEEppB7v160006Ev, symObjAddr: 0xA0A0, symBinAddr: 0x10000E610, symSize: 0x30 }
  - { offsetInCU: 0x137D6, offset: 0x137D6, size: 0x8, addend: 0x0, symName: __ZNKSt3__116reverse_iteratorINS0_IP8UserDataEEE4baseB7v160006Ev, symObjAddr: 0xA0D0, symBinAddr: 0x10000E640, symSize: 0x20 }
  - { offsetInCU: 0x13800, offset: 0x13800, size: 0x8, addend: 0x0, symName: __ZNSt3__119__to_address_helperINS_16reverse_iteratorINS1_IP8UserDataEEEEvE6__callB7v160006ERKS5_, symObjAddr: 0xA0F0, symBinAddr: 0x10000E660, symSize: 0x50 }
  - { offsetInCU: 0x13823, offset: 0x13823, size: 0x8, addend: 0x0, symName: __ZNKSt3__116reverse_iteratorINS0_IP8UserDataEEEptB7v160006Ev, symObjAddr: 0xA140, symBinAddr: 0x10000E6B0, symSize: 0x20 }
  - { offsetInCU: 0x13848, offset: 0x13848, size: 0x8, addend: 0x0, symName: __ZNKSt3__116reverse_iteratorINS0_IP8UserDataEEEdeB7v160006Ev, symObjAddr: 0xA160, symBinAddr: 0x10000E6D0, symSize: 0x40 }
  - { offsetInCU: 0x1387B, offset: 0x1387B, size: 0x8, addend: 0x0, symName: __ZNSt3__116reverse_iteratorIP8UserDataEmmB7v160006Ev, symObjAddr: 0xA1A0, symBinAddr: 0x10000E710, symSize: 0x20 }
  - { offsetInCU: 0x138A0, offset: 0x138A0, size: 0x8, addend: 0x0, symName: __ZNSt3__116reverse_iteratorINS0_IP8UserDataEEEC2B7v160006ES3_, symObjAddr: 0xA1C0, symBinAddr: 0x10000E730, symSize: 0x40 }
  - { offsetInCU: 0x138D7, offset: 0x138D7, size: 0x8, addend: 0x0, symName: __ZNSt3__116reverse_iteratorIP8UserDataEC2B7v160006ES2_, symObjAddr: 0xA200, symBinAddr: 0x10000E770, symSize: 0x30 }
  - { offsetInCU: 0x1390E, offset: 0x1390E, size: 0x8, addend: 0x0, symName: __ZNSt3__114__split_bufferI8UserDataRNS_9allocatorIS1_EEED2Ev, symObjAddr: 0xA230, symBinAddr: 0x10000E7A0, symSize: 0x60 }
  - { offsetInCU: 0x13939, offset: 0x13939, size: 0x8, addend: 0x0, symName: __ZNSt3__114__split_bufferI8UserDataRNS_9allocatorIS1_EEE5clearB7v160006Ev, symObjAddr: 0xA290, symBinAddr: 0x10000E800, symSize: 0x20 }
  - { offsetInCU: 0x1395E, offset: 0x1395E, size: 0x8, addend: 0x0, symName: __ZNKSt3__114__split_bufferI8UserDataRNS_9allocatorIS1_EEE8capacityB7v160006Ev, symObjAddr: 0xA2B0, symBinAddr: 0x10000E820, symSize: 0x40 }
  - { offsetInCU: 0x13983, offset: 0x13983, size: 0x8, addend: 0x0, symName: __ZNSt3__114__split_bufferI8UserDataRNS_9allocatorIS1_EEE17__destruct_at_endB7v160006EPS1_, symObjAddr: 0xA2F0, symBinAddr: 0x10000E860, symSize: 0x30 }
  - { offsetInCU: 0x139B6, offset: 0x139B6, size: 0x8, addend: 0x0, symName: __ZNSt3__114__split_bufferI8UserDataRNS_9allocatorIS1_EEE17__destruct_at_endB7v160006EPS1_NS_17integral_constantIbLb0EEE, symObjAddr: 0xA320, symBinAddr: 0x10000E890, symSize: 0x80 }
  - { offsetInCU: 0x139F5, offset: 0x139F5, size: 0x8, addend: 0x0, symName: __ZNKSt3__114__split_bufferI8UserDataRNS_9allocatorIS1_EEE9__end_capB7v160006Ev, symObjAddr: 0xA3A0, symBinAddr: 0x10000E910, symSize: 0x20 }
  - { offsetInCU: 0x13A1A, offset: 0x13A1A, size: 0x8, addend: 0x0, symName: __ZNKSt3__117__compressed_pairIP8UserDataRNS_9allocatorIS1_EEE5firstB7v160006Ev, symObjAddr: 0xA3C0, symBinAddr: 0x10000E930, symSize: 0x1B }
...
