---
triple:          'x86_64-apple-darwin'
binary-path:     '/Users/ritayang/comp322A1/Q3'
relocations:
  - { offsetInCU: 0x5C, offset: 0x5C, size: 0x8, addend: 0x0, symName: __ZNSt3__1L19piecewise_constructE, symObjAddr: 0x5970, symBinAddr: 0x100007C50, symSize: 0x0 }
  - { offsetInCU: 0x61D1, offset: 0x61D1, size: 0x8, addend: 0x0, symName: __ZNSt3__17advanceB7v160006INS_21__tree_const_iteratorINS_12__value_typeINS_5tupleIJNS_12basic_stringIcNS_11char_traitsIcEENS_9allocatorIcEEEES9_iEEEiEEPNS_11__tree_nodeISB_PvEElEEllvEEvRT_T0_, symObjAddr: 0x3A40, symBinAddr: 0x100005DD0, symSize: 0x50 }
  - { offsetInCU: 0x651F, offset: 0x651F, size: 0x8, addend: 0x0, symName: __ZNSt3__124__put_character_sequenceB7v160006IcNS_11char_traitsIcEEEERNS_13basic_ostreamIT_T0_EES7_PKS4_m, symObjAddr: 0x4F60, symBinAddr: 0x1000072F0, symSize: 0x1F0 }
  - { offsetInCU: 0x7E6F, offset: 0x7E6F, size: 0x8, addend: 0x0, symName: __ZNSt3__110make_tupleB7v160006IJRA5_KcRA10_S1_iEEENS_5tupleIJDpNS_18__unwrap_ref_decayIT_E4typeEEEEDpOS8_, symObjAddr: 0xB60, symBinAddr: 0x100002EF0, symSize: 0x40 }
  - { offsetInCU: 0x86CA, offset: 0x86CA, size: 0x8, addend: 0x0, symName: __ZNSt3__110make_tupleB7v160006IJRA5_KcRA9_S1_iEEENS_5tupleIJDpNS_18__unwrap_ref_decayIT_E4typeEEEEDpOS8_, symObjAddr: 0xBD0, symBinAddr: 0x100002F60, symSize: 0x40 }
  - { offsetInCU: 0x872B, offset: 0x872B, size: 0x8, addend: 0x0, symName: __ZNSt3__110make_tupleB7v160006IJRA5_KcRA7_S1_iEEENS_5tupleIJDpNS_18__unwrap_ref_decayIT_E4typeEEEEDpOS8_, symObjAddr: 0xC10, symBinAddr: 0x100002FA0, symSize: 0x40 }
  - { offsetInCU: 0x878C, offset: 0x878C, size: 0x8, addend: 0x0, symName: __ZNSt3__110make_tupleB7v160006IJRA7_KcRA10_S1_iEEENS_5tupleIJDpNS_18__unwrap_ref_decayIT_E4typeEEEEDpOS8_, symObjAddr: 0xC50, symBinAddr: 0x100002FE0, symSize: 0x40 }
  - { offsetInCU: 0x87ED, offset: 0x87ED, size: 0x8, addend: 0x0, symName: __ZNSt3__110make_tupleB7v160006IJRA7_KcRA9_S1_iEEENS_5tupleIJDpNS_18__unwrap_ref_decayIT_E4typeEEEEDpOS8_, symObjAddr: 0xC90, symBinAddr: 0x100003020, symSize: 0x40 }
  - { offsetInCU: 0x884E, offset: 0x884E, size: 0x8, addend: 0x0, symName: __ZNSt3__110make_tupleB7v160006IJRA7_KcS3_iEEENS_5tupleIJDpNS_18__unwrap_ref_decayIT_E4typeEEEEDpOS6_, symObjAddr: 0xCD0, symBinAddr: 0x100003060, symSize: 0x40 }
  - { offsetInCU: 0x88AF, offset: 0x88AF, size: 0x8, addend: 0x0, symName: __ZNSt3__110make_tupleB7v160006IJRNS_12basic_stringIcNS_11char_traitsIcEENS_9allocatorIcEEEES7_RiEEENS_5tupleIJDpNS_18__unwrap_ref_decayIT_E4typeEEEEDpOSB_, symObjAddr: 0xD70, symBinAddr: 0x100003100, symSize: 0x40 }
  - { offsetInCU: 0x8910, offset: 0x8910, size: 0x8, addend: 0x0, symName: __ZNSt3__1lsB7v160006INS_11char_traitsIcEEEERNS_13basic_ostreamIcT_EES6_PKc, symObjAddr: 0xF70, symBinAddr: 0x100003300, symSize: 0x40 }
  - { offsetInCU: 0x8956, offset: 0x8956, size: 0x8, addend: 0x0, symName: __ZNSt3__14endlB7v160006IcNS_11char_traitsIcEEEERNS_13basic_ostreamIT_T0_EES7_, symObjAddr: 0xFD0, symBinAddr: 0x100003360, symSize: 0x50 }
  - { offsetInCU: 0x89CF, offset: 0x89CF, size: 0x8, addend: 0x0, symName: __ZNSt3__13getB7v160006ILm0EJPKcS2_iEEERNS_13tuple_elementIXT_ENS_5tupleIJDpT0_EEEE4typeERS7_, symObjAddr: 0x1310, symBinAddr: 0x1000036A0, symSize: 0x20 }
  - { offsetInCU: 0x8A1B, offset: 0x8A1B, size: 0x8, addend: 0x0, symName: __ZNSt3__13getB7v160006ILm1EJPKcS2_iEEERNS_13tuple_elementIXT_ENS_5tupleIJDpT0_EEEE4typeERS7_, symObjAddr: 0x1360, symBinAddr: 0x1000036F0, symSize: 0x20 }
  - { offsetInCU: 0x8A67, offset: 0x8A67, size: 0x8, addend: 0x0, symName: __ZNSt3__13getB7v160006ILm2EJPKcS2_iEEERNS_13tuple_elementIXT_ENS_5tupleIJDpT0_EEEE4typeERS7_, symObjAddr: 0x13B0, symBinAddr: 0x100003740, symSize: 0x20 }
  - { offsetInCU: 0x8AD2, offset: 0x8AD2, size: 0x8, addend: 0x0, symName: __ZNSt3__119__debug_db_insert_cB7v160006INS_12basic_stringIcNS_11char_traitsIcEENS_9allocatorIcEEEEEEvPT_, symObjAddr: 0x1D50, symBinAddr: 0x1000040E0, symSize: 0x10 }
  - { offsetInCU: 0x8B03, offset: 0x8B03, size: 0x8, addend: 0x0, symName: __ZNSt3__118__constexpr_strlenB7v160006EPKc, symObjAddr: 0x1DF0, symBinAddr: 0x100004180, symSize: 0x20 }
  - { offsetInCU: 0x8B86, offset: 0x8B86, size: 0x8, addend: 0x0, symName: __ZNSt3__1eqB7v160006ERKNS_21__tree_const_iteratorINS_12__value_typeINS_5tupleIJNS_12basic_stringIcNS_11char_traitsIcEENS_9allocatorIcEEEES8_iEEEiEEPNS_11__tree_nodeISA_PvEElEESH_, symObjAddr: 0x2BD0, symBinAddr: 0x100004F60, symSize: 0x30 }
  - { offsetInCU: 0x8BC3, offset: 0x8BC3, size: 0x8, addend: 0x0, symName: __ZNSt3__14nextB7v160006INS_21__tree_const_iteratorINS_12__value_typeINS_5tupleIJNS_12basic_stringIcNS_11char_traitsIcEENS_9allocatorIcEEEES9_iEEEiEEPNS_11__tree_nodeISB_PvEElEEEENS_9enable_ifIXsr25__is_cpp17_input_iteratorIT_EE5valueESI_E4typeESI_NS_15iterator_traitsISI_E15difference_typeE, symObjAddr: 0x2F10, symBinAddr: 0x1000052A0, symSize: 0x50 }
  - { offsetInCU: 0x8C06, offset: 0x8C06, size: 0x8, addend: 0x0, symName: __ZNSt3__1ltB7v160006IJNS_12basic_stringIcNS_11char_traitsIcEENS_9allocatorIcEEEES6_iEJS6_S6_iEEEbRKNS_5tupleIJDpT_EEERKNS7_IJDpT0_EEE, symObjAddr: 0x3060, symBinAddr: 0x1000053F0, symSize: 0x30 }
  - { offsetInCU: 0x8CB4, offset: 0x8CB4, size: 0x8, addend: 0x0, symName: __ZNSt3__1ltB7v160006IcNS_11char_traitsIcEENS_9allocatorIcEEEEbRKNS_12basic_stringIT_T0_T1_EESB_, symObjAddr: 0x3140, symBinAddr: 0x1000054D0, symSize: 0x30 }
  - { offsetInCU: 0x8D0C, offset: 0x8D0C, size: 0x8, addend: 0x0, symName: __ZNSt3__13getB7v160006ILm0EJNS_12basic_stringIcNS_11char_traitsIcEENS_9allocatorIcEEEES6_iEEERKNS_13tuple_elementIXT_ENS_5tupleIJDpT0_EEEE4typeERKSB_, symObjAddr: 0x3170, symBinAddr: 0x100005500, symSize: 0x20 }
  - { offsetInCU: 0x8DC4, offset: 0x8DC4, size: 0x8, addend: 0x0, symName: __ZNSt3__13minB7v160006ImEERKT_S3_S3_, symObjAddr: 0x34E0, symBinAddr: 0x100005870, symSize: 0x30 }
  - { offsetInCU: 0x8E07, offset: 0x8E07, size: 0x8, addend: 0x0, symName: __ZNSt3__118__constexpr_memcmpB7v160006IcEEiPKT_S3_m, symObjAddr: 0x35C0, symBinAddr: 0x100005950, symSize: 0x30 }
  - { offsetInCU: 0x8E58, offset: 0x8E58, size: 0x8, addend: 0x0, symName: __ZNSt3__112__to_addressB7v160006IKcEEPT_S3_, symObjAddr: 0x35F0, symBinAddr: 0x100005980, symSize: 0x10 }
  - { offsetInCU: 0x8EC0, offset: 0x8EC0, size: 0x8, addend: 0x0, symName: __ZNSt3__13minB7v160006ImNS_6__lessImmEEEERKT_S5_S5_T0_, symObjAddr: 0x36B0, symBinAddr: 0x100005A40, symSize: 0x50 }
  - { offsetInCU: 0x8F55, offset: 0x8F55, size: 0x8, addend: 0x0, symName: __ZNSt3__13getB7v160006ILm1EJNS_12basic_stringIcNS_11char_traitsIcEENS_9allocatorIcEEEES6_iEEERKNS_13tuple_elementIXT_ENS_5tupleIJDpT0_EEEE4typeERKSB_, symObjAddr: 0x37C0, symBinAddr: 0x100005B50, symSize: 0x20 }
  - { offsetInCU: 0x8FE9, offset: 0x8FE9, size: 0x8, addend: 0x0, symName: __ZNSt3__13getB7v160006ILm2EJNS_12basic_stringIcNS_11char_traitsIcEENS_9allocatorIcEEEES6_iEEERKNS_13tuple_elementIXT_ENS_5tupleIJDpT0_EEEE4typeERKSB_, symObjAddr: 0x3890, symBinAddr: 0x100005C20, symSize: 0x20 }
  - { offsetInCU: 0x907D, offset: 0x907D, size: 0x8, addend: 0x0, symName: __ZNSt3__116__tree_prev_iterB7v160006IPNS_16__tree_node_baseIPvEEPNS_15__tree_end_nodeIS4_EEEET_T0_, symObjAddr: 0x38E0, symBinAddr: 0x100005C70, symSize: 0xA0 }
  - { offsetInCU: 0x90C9, offset: 0x90C9, size: 0x8, addend: 0x0, symName: __ZNSt3__110__tree_maxB7v160006IPNS_16__tree_node_baseIPvEEEET_S5_, symObjAddr: 0x3980, symBinAddr: 0x100005D10, symSize: 0x30 }
  - { offsetInCU: 0x90FE, offset: 0x90FE, size: 0x8, addend: 0x0, symName: __ZNSt3__120__tree_is_left_childB7v160006IPNS_16__tree_node_baseIPvEEEEbT_, symObjAddr: 0x39B0, symBinAddr: 0x100005D40, symSize: 0x30 }
  - { offsetInCU: 0x9133, offset: 0x9133, size: 0x8, addend: 0x0, symName: __ZNSt3__121__convert_to_integralB7v160006El, symObjAddr: 0x3A90, symBinAddr: 0x100005E20, symSize: 0x10 }
  - { offsetInCU: 0x915F, offset: 0x915F, size: 0x8, addend: 0x0, symName: __ZNSt3__19__advanceB7v160006INS_21__tree_const_iteratorINS_12__value_typeINS_5tupleIJNS_12basic_stringIcNS_11char_traitsIcEENS_9allocatorIcEEEES9_iEEEiEEPNS_11__tree_nodeISB_PvEElEEEEvRT_NS_15iterator_traitsISH_E15difference_typeENS_26bidirectional_iterator_tagE, symObjAddr: 0x3AA0, symBinAddr: 0x100005E30, symSize: 0x80 }
  - { offsetInCU: 0x91A8, offset: 0x91A8, size: 0x8, addend: 0x0, symName: __ZNSt3__116__tree_next_iterB7v160006IPNS_15__tree_end_nodeIPNS_16__tree_node_baseIPvEEEES5_EET_T0_, symObjAddr: 0x3B50, symBinAddr: 0x100005EE0, symSize: 0x80 }
  - { offsetInCU: 0x91E6, offset: 0x91E6, size: 0x8, addend: 0x0, symName: __ZNSt3__110__tree_minB7v160006IPNS_16__tree_node_baseIPvEEEET_S5_, symObjAddr: 0x3BD0, symBinAddr: 0x100005F60, symSize: 0x30 }
  - { offsetInCU: 0x9239, offset: 0x9239, size: 0x8, addend: 0x0, symName: __ZNSt3__117__libcpp_allocateB7v160006Emm, symObjAddr: 0x3E30, symBinAddr: 0x1000061C0, symSize: 0x20 }
  - { offsetInCU: 0x9276, offset: 0x9276, size: 0x8, addend: 0x0, symName: __ZNSt3__121__libcpp_operator_newB7v160006IJmEEEPvDpT_, symObjAddr: 0x3E70, symBinAddr: 0x100006200, symSize: 0x20 }
  - { offsetInCU: 0x92AF, offset: 0x92AF, size: 0x8, addend: 0x0, symName: __ZNSt3__127__tree_balance_after_insertB7v160006IPNS_16__tree_node_baseIPvEEEEvT_S5_, symObjAddr: 0x4230, symBinAddr: 0x1000065C0, symSize: 0x240 }
  - { offsetInCU: 0x932B, offset: 0x932B, size: 0x8, addend: 0x0, symName: __ZNSt3__118__tree_left_rotateB7v160006IPNS_16__tree_node_baseIPvEEEEvT_, symObjAddr: 0x4490, symBinAddr: 0x100006820, symSize: 0xD0 }
  - { offsetInCU: 0x936D, offset: 0x936D, size: 0x8, addend: 0x0, symName: __ZNSt3__119__tree_right_rotateB7v160006IPNS_16__tree_node_baseIPvEEEEvT_, symObjAddr: 0x4560, symBinAddr: 0x1000068F0, symSize: 0xC0 }
  - { offsetInCU: 0x93AF, offset: 0x93AF, size: 0x8, addend: 0x0, symName: __ZNSt3__119__libcpp_deallocateB7v160006EPvmm, symObjAddr: 0x4860, symBinAddr: 0x100006BF0, symSize: 0x30 }
  - { offsetInCU: 0x93F7, offset: 0x93F7, size: 0x8, addend: 0x0, symName: __ZNSt3__127__do_deallocate_handle_sizeB7v160006IJEEEvPvmDpT_, symObjAddr: 0x4890, symBinAddr: 0x100006C20, symSize: 0x20 }
  - { offsetInCU: 0x9435, offset: 0x9435, size: 0x8, addend: 0x0, symName: __ZNSt3__124__libcpp_operator_deleteB7v160006IJPvEEEvDpT_, symObjAddr: 0x48B0, symBinAddr: 0x100006C40, symSize: 0x20 }
  - { offsetInCU: 0x94A1, offset: 0x94A1, size: 0x8, addend: 0x0, symName: __ZNSt3__116forward_as_tupleB7v160006IJRKNS_5tupleIJNS_12basic_stringIcNS_11char_traitsIcEENS_9allocatorIcEEEES7_iEEEEEENS1_IJDpOT_EEESD_, symObjAddr: 0x4B50, symBinAddr: 0x100006EE0, symSize: 0x30 }
  - { offsetInCU: 0x94DA, offset: 0x94DA, size: 0x8, addend: 0x0, symName: __ZNSt3__116forward_as_tupleB7v160006IJEEENS_5tupleIJDpOT_EEES4_, symObjAddr: 0x4B80, symBinAddr: 0x100006F10, symSize: 0x10 }
  - { offsetInCU: 0x94FE, offset: 0x94FE, size: 0x8, addend: 0x0, symName: __ZNSt3__13getB7v160006ILm0EJRKNS_5tupleIJNS_12basic_stringIcNS_11char_traitsIcEENS_9allocatorIcEEEES7_iEEEEEERNS_13tuple_elementIXT_ENS1_IJDpT0_EEEE4typeERSE_, symObjAddr: 0x4E10, symBinAddr: 0x1000071A0, symSize: 0x20 }
  - { offsetInCU: 0x9589, offset: 0x9589, size: 0x8, addend: 0x0, symName: __ZNSt3__116__pad_and_outputB7v160006IcNS_11char_traitsIcEEEENS_19ostreambuf_iteratorIT_T0_EES6_PKS4_S8_S8_RNS_8ios_baseES4_, symObjAddr: 0x5170, symBinAddr: 0x100007500, symSize: 0x220 }
  - { offsetInCU: 0x9659, offset: 0x9659, size: 0x8, addend: 0x0, symName: __ZNSt3__19use_facetB7v160006INS_5ctypeIcEEEERKT_RKNS_6localeE, symObjAddr: 0x56E0, symBinAddr: 0x100007A70, symSize: 0x30 }
  - { offsetInCU: 0x9C9A, offset: 0x9C9A, size: 0x8, addend: 0x0, symName: __ZSt28__throw_bad_array_new_lengthB7v160006v, symObjAddr: 0x3DF0, symBinAddr: 0x100006180, symSize: 0x40 }
  - { offsetInCU: 0xC6F6, offset: 0xC6F6, size: 0x8, addend: 0x0, symName: __Z18get_daily_caloriesdNSt3__112basic_stringIcNS_11char_traitsIcEENS_9allocatorIcEEEES5_, symObjAddr: 0x0, symBinAddr: 0x100002390, symSize: 0xB60 }
  - { offsetInCU: 0xC812, offset: 0xC812, size: 0x8, addend: 0x0, symName: __ZNSt3__14pairIKNS_5tupleIJNS_12basic_stringIcNS_11char_traitsIcEENS_9allocatorIcEEEES7_iEEEiEC1B7v160006INS1_IJPKcSD_iEEEiLPv0EEEOT_OT0_, symObjAddr: 0xBA0, symBinAddr: 0x100002F30, symSize: 0x30 }
  - { offsetInCU: 0xC870, offset: 0xC870, size: 0x8, addend: 0x0, symName: __ZNSt3__14pairIKNS_5tupleIJNS_12basic_stringIcNS_11char_traitsIcEENS_9allocatorIcEEEES7_iEEEiED1Ev, symObjAddr: 0xD10, symBinAddr: 0x1000030A0, symSize: 0x20 }
  - { offsetInCU: 0xC89C, offset: 0xC89C, size: 0x8, addend: 0x0, symName: __ZNSt3__13mapINS_5tupleIJNS_12basic_stringIcNS_11char_traitsIcEENS_9allocatorIcEEEES7_iEEEiNS_4lessIS8_EENS5_INS_4pairIKS8_iEEEEEC1B7v160006ESt16initializer_listISD_ERKSA_, symObjAddr: 0xD30, symBinAddr: 0x1000030C0, symSize: 0x40 }
  - { offsetInCU: 0xC8E4, offset: 0xC8E4, size: 0x8, addend: 0x0, symName: __ZNSt3__13mapINS_5tupleIJNS_12basic_stringIcNS_11char_traitsIcEENS_9allocatorIcEEEES7_iEEEiNS_4lessIS8_EENS5_INS_4pairIKS8_iEEEEEixERSC_, symObjAddr: 0xDB0, symBinAddr: 0x100003140, symSize: 0x70 }
  - { offsetInCU: 0xC91B, offset: 0xC91B, size: 0x8, addend: 0x0, symName: __ZNSt3__15tupleIJNS_12basic_stringIcNS_11char_traitsIcEENS_9allocatorIcEEEES6_iEED1Ev, symObjAddr: 0xE20, symBinAddr: 0x1000031B0, symSize: 0x20 }
  - { offsetInCU: 0xC948, offset: 0xC948, size: 0x8, addend: 0x0, symName: __ZNSt3__13mapINS_5tupleIJNS_12basic_stringIcNS_11char_traitsIcEENS_9allocatorIcEEEES7_iEEEiNS_4lessIS8_EENS5_INS_4pairIKS8_iEEEEED1B7v160006Ev, symObjAddr: 0xE40, symBinAddr: 0x1000031D0, symSize: 0x20 }
  - { offsetInCU: 0xC972, offset: 0xC972, size: 0x8, addend: 0x0, symName: _main, symObjAddr: 0xE60, symBinAddr: 0x1000031F0, symSize: 0xE0 }
  - { offsetInCU: 0xC9A0, offset: 0xC9A0, size: 0x8, addend: 0x0, symName: __ZNSt3__112basic_stringIcNS_11char_traitsIcEENS_9allocatorIcEEEC1B7v160006IDnEEPKc, symObjAddr: 0xF40, symBinAddr: 0x1000032D0, symSize: 0x30 }
  - { offsetInCU: 0xC9DE, offset: 0xC9DE, size: 0x8, addend: 0x0, symName: __ZNSt3__113basic_ostreamIcNS_11char_traitsIcEEElsB7v160006EPFRS3_S4_E, symObjAddr: 0xFB0, symBinAddr: 0x100003340, symSize: 0x20 }
  - { offsetInCU: 0xCA3E, offset: 0xCA3E, size: 0x8, addend: 0x0, symName: __ZNSt3__15tupleIJPKcS2_iEEC1B7v160006IJRA5_S1_RA10_S1_iELi0EEEDpOT_, symObjAddr: 0x1020, symBinAddr: 0x1000033B0, symSize: 0x40 }
  - { offsetInCU: 0xCAB0, offset: 0xCAB0, size: 0x8, addend: 0x0, symName: __ZNSt3__15tupleIJPKcS2_iEEC2B7v160006IJRA5_S1_RA10_S1_iELi0EEEDpOT_, symObjAddr: 0x1060, symBinAddr: 0x1000033F0, symSize: 0x40 }
  - { offsetInCU: 0xCB22, offset: 0xCB22, size: 0x8, addend: 0x0, symName: __ZNSt3__112__tuple_implINS_15__tuple_indicesIJLm0ELm1ELm2EEEEJPKcS4_iEEC1B7v160006IJLm0ELm1ELm2EEJS4_S4_iEJEJEJRA5_S3_RA10_S3_iEEENS1_IJXspT_EEEENS_13__tuple_typesIJDpT0_EEENS1_IJXspT1_EEEENSC_IJDpT2_EEEDpOT3_, symObjAddr: 0x10A0, symBinAddr: 0x100003430, symSize: 0x40 }
  - { offsetInCU: 0xCBF5, offset: 0xCBF5, size: 0x8, addend: 0x0, symName: __ZNSt3__112__tuple_implINS_15__tuple_indicesIJLm0ELm1ELm2EEEEJPKcS4_iEEC2B7v160006IJLm0ELm1ELm2EEJS4_S4_iEJEJEJRA5_S3_RA10_S3_iEEENS1_IJXspT_EEEENS_13__tuple_typesIJDpT0_EEENS1_IJXspT1_EEEENSC_IJDpT2_EEEDpOT3_, symObjAddr: 0x10E0, symBinAddr: 0x100003470, symSize: 0x60 }
  - { offsetInCU: 0xCCC8, offset: 0xCCC8, size: 0x8, addend: 0x0, symName: __ZNSt3__112__tuple_leafILm0EPKcLb0EEC2B7v160006IRA5_S1_vEEOT_, symObjAddr: 0x1140, symBinAddr: 0x1000034D0, symSize: 0x20 }
  - { offsetInCU: 0xCD0B, offset: 0xCD0B, size: 0x8, addend: 0x0, symName: __ZNSt3__112__tuple_leafILm1EPKcLb0EEC2B7v160006IRA10_S1_vEEOT_, symObjAddr: 0x1160, symBinAddr: 0x1000034F0, symSize: 0x20 }
  - { offsetInCU: 0xCD4E, offset: 0xCD4E, size: 0x8, addend: 0x0, symName: __ZNSt3__112__tuple_leafILm2EiLb0EEC2B7v160006IivEEOT_, symObjAddr: 0x1180, symBinAddr: 0x100003510, symSize: 0x20 }
  - { offsetInCU: 0xCD91, offset: 0xCD91, size: 0x8, addend: 0x0, symName: __ZNSt3__14pairIKNS_5tupleIJNS_12basic_stringIcNS_11char_traitsIcEENS_9allocatorIcEEEES7_iEEEiEC2B7v160006INS1_IJPKcSD_iEEEiLPv0EEEOT_OT0_, symObjAddr: 0x11A0, symBinAddr: 0x100003530, symSize: 0x40 }
  - { offsetInCU: 0xCDEF, offset: 0xCDEF, size: 0x8, addend: 0x0, symName: __ZNSt3__15tupleIJNS_12basic_stringIcNS_11char_traitsIcEENS_9allocatorIcEEEES6_iEEC1B7v160006IJPKcSA_iELi0EEEONS0_IJDpT_EEE, symObjAddr: 0x11E0, symBinAddr: 0x100003570, symSize: 0x30 }
  - { offsetInCU: 0xCE43, offset: 0xCE43, size: 0x8, addend: 0x0, symName: __ZNSt3__15tupleIJNS_12basic_stringIcNS_11char_traitsIcEENS_9allocatorIcEEEES6_iEEC2B7v160006IJPKcSA_iELi0EEEONS0_IJDpT_EEE, symObjAddr: 0x1210, symBinAddr: 0x1000035A0, symSize: 0x30 }
  - { offsetInCU: 0xCE97, offset: 0xCE97, size: 0x8, addend: 0x0, symName: __ZNSt3__112__tuple_implINS_15__tuple_indicesIJLm0ELm1ELm2EEEEJNS_12basic_stringIcNS_11char_traitsIcEENS_9allocatorIcEEEES8_iEEC1B7v160006INS_5tupleIJPKcSD_iEEEvEEOT_, symObjAddr: 0x1240, symBinAddr: 0x1000035D0, symSize: 0x30 }
  - { offsetInCU: 0xCEDA, offset: 0xCEDA, size: 0x8, addend: 0x0, symName: __ZNSt3__112__tuple_implINS_15__tuple_indicesIJLm0ELm1ELm2EEEEJNS_12basic_stringIcNS_11char_traitsIcEENS_9allocatorIcEEEES8_iEEC2B7v160006INS_5tupleIJPKcSD_iEEEvEEOT_, symObjAddr: 0x1270, symBinAddr: 0x100003600, symSize: 0xA0 }
  - { offsetInCU: 0xCF22, offset: 0xCF22, size: 0x8, addend: 0x0, symName: __ZNSt3__112__tuple_leafILm0ENS_12basic_stringIcNS_11char_traitsIcEENS_9allocatorIcEEEELb0EEC2B7v160006IPKcvEEOT_, symObjAddr: 0x1330, symBinAddr: 0x1000036C0, symSize: 0x30 }
  - { offsetInCU: 0xCF65, offset: 0xCF65, size: 0x8, addend: 0x0, symName: __ZNSt3__112__tuple_leafILm1ENS_12basic_stringIcNS_11char_traitsIcEENS_9allocatorIcEEEELb0EEC2B7v160006IPKcvEEOT_, symObjAddr: 0x1380, symBinAddr: 0x100003710, symSize: 0x30 }
  - { offsetInCU: 0xCFA8, offset: 0xCFA8, size: 0x8, addend: 0x0, symName: __ZNSt3__112__tuple_leafILm0ENS_12basic_stringIcNS_11char_traitsIcEENS_9allocatorIcEEEELb0EED2Ev, symObjAddr: 0x13D0, symBinAddr: 0x100003760, symSize: 0x20 }
  - { offsetInCU: 0xCFD5, offset: 0xCFD5, size: 0x8, addend: 0x0, symName: __ZNSt3__112__tuple_leafILm0EPKcLb0EE3getB7v160006Ev, symObjAddr: 0x13F0, symBinAddr: 0x100003780, symSize: 0x10 }
  - { offsetInCU: 0xCFFB, offset: 0xCFFB, size: 0x8, addend: 0x0, symName: __ZNSt3__112__tuple_leafILm1EPKcLb0EE3getB7v160006Ev, symObjAddr: 0x1400, symBinAddr: 0x100003790, symSize: 0x10 }
  - { offsetInCU: 0xD021, offset: 0xD021, size: 0x8, addend: 0x0, symName: __ZNSt3__112__tuple_leafILm2EiLb0EE3getB7v160006Ev, symObjAddr: 0x1410, symBinAddr: 0x1000037A0, symSize: 0x10 }
  - { offsetInCU: 0xD05D, offset: 0xD05D, size: 0x8, addend: 0x0, symName: __ZNSt3__15tupleIJPKcS2_iEEC1B7v160006IJRA5_S1_RA9_S1_iELi0EEEDpOT_, symObjAddr: 0x1420, symBinAddr: 0x1000037B0, symSize: 0x40 }
  - { offsetInCU: 0xD0CF, offset: 0xD0CF, size: 0x8, addend: 0x0, symName: __ZNSt3__15tupleIJPKcS2_iEEC2B7v160006IJRA5_S1_RA9_S1_iELi0EEEDpOT_, symObjAddr: 0x1460, symBinAddr: 0x1000037F0, symSize: 0x40 }
  - { offsetInCU: 0xD141, offset: 0xD141, size: 0x8, addend: 0x0, symName: __ZNSt3__112__tuple_implINS_15__tuple_indicesIJLm0ELm1ELm2EEEEJPKcS4_iEEC1B7v160006IJLm0ELm1ELm2EEJS4_S4_iEJEJEJRA5_S3_RA9_S3_iEEENS1_IJXspT_EEEENS_13__tuple_typesIJDpT0_EEENS1_IJXspT1_EEEENSC_IJDpT2_EEEDpOT3_, symObjAddr: 0x14A0, symBinAddr: 0x100003830, symSize: 0x40 }
  - { offsetInCU: 0xD214, offset: 0xD214, size: 0x8, addend: 0x0, symName: __ZNSt3__112__tuple_implINS_15__tuple_indicesIJLm0ELm1ELm2EEEEJPKcS4_iEEC2B7v160006IJLm0ELm1ELm2EEJS4_S4_iEJEJEJRA5_S3_RA9_S3_iEEENS1_IJXspT_EEEENS_13__tuple_typesIJDpT0_EEENS1_IJXspT1_EEEENSC_IJDpT2_EEEDpOT3_, symObjAddr: 0x14E0, symBinAddr: 0x100003870, symSize: 0x60 }
  - { offsetInCU: 0xD2E7, offset: 0xD2E7, size: 0x8, addend: 0x0, symName: __ZNSt3__112__tuple_leafILm1EPKcLb0EEC2B7v160006IRA9_S1_vEEOT_, symObjAddr: 0x1540, symBinAddr: 0x1000038D0, symSize: 0x20 }
  - { offsetInCU: 0xD340, offset: 0xD340, size: 0x8, addend: 0x0, symName: __ZNSt3__15tupleIJPKcS2_iEEC1B7v160006IJRA5_S1_RA7_S1_iELi0EEEDpOT_, symObjAddr: 0x1560, symBinAddr: 0x1000038F0, symSize: 0x40 }
  - { offsetInCU: 0xD3B2, offset: 0xD3B2, size: 0x8, addend: 0x0, symName: __ZNSt3__15tupleIJPKcS2_iEEC2B7v160006IJRA5_S1_RA7_S1_iELi0EEEDpOT_, symObjAddr: 0x15A0, symBinAddr: 0x100003930, symSize: 0x40 }
  - { offsetInCU: 0xD424, offset: 0xD424, size: 0x8, addend: 0x0, symName: __ZNSt3__112__tuple_implINS_15__tuple_indicesIJLm0ELm1ELm2EEEEJPKcS4_iEEC1B7v160006IJLm0ELm1ELm2EEJS4_S4_iEJEJEJRA5_S3_RA7_S3_iEEENS1_IJXspT_EEEENS_13__tuple_typesIJDpT0_EEENS1_IJXspT1_EEEENSC_IJDpT2_EEEDpOT3_, symObjAddr: 0x15E0, symBinAddr: 0x100003970, symSize: 0x40 }
  - { offsetInCU: 0xD4F7, offset: 0xD4F7, size: 0x8, addend: 0x0, symName: __ZNSt3__112__tuple_implINS_15__tuple_indicesIJLm0ELm1ELm2EEEEJPKcS4_iEEC2B7v160006IJLm0ELm1ELm2EEJS4_S4_iEJEJEJRA5_S3_RA7_S3_iEEENS1_IJXspT_EEEENS_13__tuple_typesIJDpT0_EEENS1_IJXspT1_EEEENSC_IJDpT2_EEEDpOT3_, symObjAddr: 0x1620, symBinAddr: 0x1000039B0, symSize: 0x60 }
  - { offsetInCU: 0xD5CA, offset: 0xD5CA, size: 0x8, addend: 0x0, symName: __ZNSt3__112__tuple_leafILm1EPKcLb0EEC2B7v160006IRA7_S1_vEEOT_, symObjAddr: 0x1680, symBinAddr: 0x100003A10, symSize: 0x20 }
  - { offsetInCU: 0xD60D, offset: 0xD60D, size: 0x8, addend: 0x0, symName: __ZNSt3__15tupleIJPKcS2_iEEC1B7v160006IJRA7_S1_RA10_S1_iELi0EEEDpOT_, symObjAddr: 0x16A0, symBinAddr: 0x100003A30, symSize: 0x40 }
  - { offsetInCU: 0xD67F, offset: 0xD67F, size: 0x8, addend: 0x0, symName: __ZNSt3__15tupleIJPKcS2_iEEC2B7v160006IJRA7_S1_RA10_S1_iELi0EEEDpOT_, symObjAddr: 0x16E0, symBinAddr: 0x100003A70, symSize: 0x40 }
  - { offsetInCU: 0xD6F1, offset: 0xD6F1, size: 0x8, addend: 0x0, symName: __ZNSt3__112__tuple_implINS_15__tuple_indicesIJLm0ELm1ELm2EEEEJPKcS4_iEEC1B7v160006IJLm0ELm1ELm2EEJS4_S4_iEJEJEJRA7_S3_RA10_S3_iEEENS1_IJXspT_EEEENS_13__tuple_typesIJDpT0_EEENS1_IJXspT1_EEEENSC_IJDpT2_EEEDpOT3_, symObjAddr: 0x1720, symBinAddr: 0x100003AB0, symSize: 0x40 }
  - { offsetInCU: 0xD7C4, offset: 0xD7C4, size: 0x8, addend: 0x0, symName: __ZNSt3__112__tuple_implINS_15__tuple_indicesIJLm0ELm1ELm2EEEEJPKcS4_iEEC2B7v160006IJLm0ELm1ELm2EEJS4_S4_iEJEJEJRA7_S3_RA10_S3_iEEENS1_IJXspT_EEEENS_13__tuple_typesIJDpT0_EEENS1_IJXspT1_EEEENSC_IJDpT2_EEEDpOT3_, symObjAddr: 0x1760, symBinAddr: 0x100003AF0, symSize: 0x60 }
  - { offsetInCU: 0xD897, offset: 0xD897, size: 0x8, addend: 0x0, symName: __ZNSt3__112__tuple_leafILm0EPKcLb0EEC2B7v160006IRA7_S1_vEEOT_, symObjAddr: 0x17C0, symBinAddr: 0x100003B50, symSize: 0x20 }
  - { offsetInCU: 0xD8DA, offset: 0xD8DA, size: 0x8, addend: 0x0, symName: __ZNSt3__15tupleIJPKcS2_iEEC1B7v160006IJRA7_S1_RA9_S1_iELi0EEEDpOT_, symObjAddr: 0x17E0, symBinAddr: 0x100003B70, symSize: 0x40 }
  - { offsetInCU: 0xD94C, offset: 0xD94C, size: 0x8, addend: 0x0, symName: __ZNSt3__15tupleIJPKcS2_iEEC2B7v160006IJRA7_S1_RA9_S1_iELi0EEEDpOT_, symObjAddr: 0x1820, symBinAddr: 0x100003BB0, symSize: 0x40 }
  - { offsetInCU: 0xD9BE, offset: 0xD9BE, size: 0x8, addend: 0x0, symName: __ZNSt3__112__tuple_implINS_15__tuple_indicesIJLm0ELm1ELm2EEEEJPKcS4_iEEC1B7v160006IJLm0ELm1ELm2EEJS4_S4_iEJEJEJRA7_S3_RA9_S3_iEEENS1_IJXspT_EEEENS_13__tuple_typesIJDpT0_EEENS1_IJXspT1_EEEENSC_IJDpT2_EEEDpOT3_, symObjAddr: 0x1860, symBinAddr: 0x100003BF0, symSize: 0x40 }
  - { offsetInCU: 0xDA91, offset: 0xDA91, size: 0x8, addend: 0x0, symName: __ZNSt3__112__tuple_implINS_15__tuple_indicesIJLm0ELm1ELm2EEEEJPKcS4_iEEC2B7v160006IJLm0ELm1ELm2EEJS4_S4_iEJEJEJRA7_S3_RA9_S3_iEEENS1_IJXspT_EEEENS_13__tuple_typesIJDpT0_EEENS1_IJXspT1_EEEENSC_IJDpT2_EEEDpOT3_, symObjAddr: 0x18A0, symBinAddr: 0x100003C30, symSize: 0x60 }
  - { offsetInCU: 0xDB64, offset: 0xDB64, size: 0x8, addend: 0x0, symName: __ZNSt3__15tupleIJPKcS2_iEEC1B7v160006IJRA7_S1_S6_iELi0EEEDpOT_, symObjAddr: 0x1900, symBinAddr: 0x100003C90, symSize: 0x40 }
  - { offsetInCU: 0xDBD6, offset: 0xDBD6, size: 0x8, addend: 0x0, symName: __ZNSt3__15tupleIJPKcS2_iEEC2B7v160006IJRA7_S1_S6_iELi0EEEDpOT_, symObjAddr: 0x1940, symBinAddr: 0x100003CD0, symSize: 0x40 }
  - { offsetInCU: 0xDC48, offset: 0xDC48, size: 0x8, addend: 0x0, symName: __ZNSt3__112__tuple_implINS_15__tuple_indicesIJLm0ELm1ELm2EEEEJPKcS4_iEEC1B7v160006IJLm0ELm1ELm2EEJS4_S4_iEJEJEJRA7_S3_S8_iEEENS1_IJXspT_EEEENS_13__tuple_typesIJDpT0_EEENS1_IJXspT1_EEEENSA_IJDpT2_EEEDpOT3_, symObjAddr: 0x1980, symBinAddr: 0x100003D10, symSize: 0x40 }
  - { offsetInCU: 0xDD1B, offset: 0xDD1B, size: 0x8, addend: 0x0, symName: __ZNSt3__112__tuple_implINS_15__tuple_indicesIJLm0ELm1ELm2EEEEJPKcS4_iEEC2B7v160006IJLm0ELm1ELm2EEJS4_S4_iEJEJEJRA7_S3_S8_iEEENS1_IJXspT_EEEENS_13__tuple_typesIJDpT0_EEENS1_IJXspT1_EEEENSA_IJDpT2_EEEDpOT3_, symObjAddr: 0x19C0, symBinAddr: 0x100003D50, symSize: 0x60 }
  - { offsetInCU: 0xDDEE, offset: 0xDDEE, size: 0x8, addend: 0x0, symName: __ZNSt3__14pairIKNS_5tupleIJNS_12basic_stringIcNS_11char_traitsIcEENS_9allocatorIcEEEES7_iEEEiED2Ev, symObjAddr: 0x1A20, symBinAddr: 0x100003DB0, symSize: 0x20 }
  - { offsetInCU: 0xDE1A, offset: 0xDE1A, size: 0x8, addend: 0x0, symName: __ZNSt3__15tupleIJNS_12basic_stringIcNS_11char_traitsIcEENS_9allocatorIcEEEES6_iEEC1B7v160006IJRS6_S9_RiELi0EEEDpOT_, symObjAddr: 0x1A40, symBinAddr: 0x100003DD0, symSize: 0x40 }
  - { offsetInCU: 0xDE8C, offset: 0xDE8C, size: 0x8, addend: 0x0, symName: __ZNSt3__15tupleIJNS_12basic_stringIcNS_11char_traitsIcEENS_9allocatorIcEEEES6_iEEC2B7v160006IJRS6_S9_RiELi0EEEDpOT_, symObjAddr: 0x1A80, symBinAddr: 0x100003E10, symSize: 0x40 }
  - { offsetInCU: 0xDEFE, offset: 0xDEFE, size: 0x8, addend: 0x0, symName: __ZNSt3__112__tuple_implINS_15__tuple_indicesIJLm0ELm1ELm2EEEEJNS_12basic_stringIcNS_11char_traitsIcEENS_9allocatorIcEEEES8_iEEC1B7v160006IJLm0ELm1ELm2EEJS8_S8_iEJEJEJRS8_SB_RiEEENS1_IJXspT_EEEENS_13__tuple_typesIJDpT0_EEENS1_IJXspT1_EEEENSE_IJDpT2_EEEDpOT3_, symObjAddr: 0x1AC0, symBinAddr: 0x100003E50, symSize: 0x40 }
  - { offsetInCU: 0xDFD1, offset: 0xDFD1, size: 0x8, addend: 0x0, symName: __ZNSt3__112__tuple_implINS_15__tuple_indicesIJLm0ELm1ELm2EEEEJNS_12basic_stringIcNS_11char_traitsIcEENS_9allocatorIcEEEES8_iEEC2B7v160006IJLm0ELm1ELm2EEJS8_S8_iEJEJEJRS8_SB_RiEEENS1_IJXspT_EEEENS_13__tuple_typesIJDpT0_EEENS1_IJXspT1_EEEENSE_IJDpT2_EEEDpOT3_, symObjAddr: 0x1B00, symBinAddr: 0x100003E90, symSize: 0x80 }
  - { offsetInCU: 0xE0A4, offset: 0xE0A4, size: 0x8, addend: 0x0, symName: __ZNSt3__112__tuple_leafILm0ENS_12basic_stringIcNS_11char_traitsIcEENS_9allocatorIcEEEELb0EEC2B7v160006IRS6_vEEOT_, symObjAddr: 0x1B80, symBinAddr: 0x100003F10, symSize: 0x30 }
  - { offsetInCU: 0xE0E7, offset: 0xE0E7, size: 0x8, addend: 0x0, symName: __ZNSt3__112__tuple_leafILm1ENS_12basic_stringIcNS_11char_traitsIcEENS_9allocatorIcEEEELb0EEC2B7v160006IRS6_vEEOT_, symObjAddr: 0x1BB0, symBinAddr: 0x100003F40, symSize: 0x30 }
  - { offsetInCU: 0xE12A, offset: 0xE12A, size: 0x8, addend: 0x0, symName: __ZNSt3__112__tuple_leafILm2EiLb0EEC2B7v160006IRivEEOT_, symObjAddr: 0x1BE0, symBinAddr: 0x100003F70, symSize: 0x20 }
  - { offsetInCU: 0xE16D, offset: 0xE16D, size: 0x8, addend: 0x0, symName: __ZNSt3__15tupleIJNS_12basic_stringIcNS_11char_traitsIcEENS_9allocatorIcEEEES6_iEED2Ev, symObjAddr: 0x1C00, symBinAddr: 0x100003F90, symSize: 0x20 }
  - { offsetInCU: 0xE19A, offset: 0xE19A, size: 0x8, addend: 0x0, symName: __ZNSt3__112__tuple_implINS_15__tuple_indicesIJLm0ELm1ELm2EEEEJNS_12basic_stringIcNS_11char_traitsIcEENS_9allocatorIcEEEES8_iEED1Ev, symObjAddr: 0x1C20, symBinAddr: 0x100003FB0, symSize: 0x20 }
  - { offsetInCU: 0xE1C7, offset: 0xE1C7, size: 0x8, addend: 0x0, symName: __ZNSt3__112__tuple_implINS_15__tuple_indicesIJLm0ELm1ELm2EEEEJNS_12basic_stringIcNS_11char_traitsIcEENS_9allocatorIcEEEES8_iEED2Ev, symObjAddr: 0x1C40, symBinAddr: 0x100003FD0, symSize: 0x30 }
  - { offsetInCU: 0xE1F4, offset: 0xE1F4, size: 0x8, addend: 0x0, symName: __ZNSt3__112__tuple_leafILm1ENS_12basic_stringIcNS_11char_traitsIcEENS_9allocatorIcEEEELb0EED2Ev, symObjAddr: 0x1C70, symBinAddr: 0x100004000, symSize: 0x20 }
  - { offsetInCU: 0xE221, offset: 0xE221, size: 0x8, addend: 0x0, symName: __ZNSt3__112basic_stringIcNS_11char_traitsIcEENS_9allocatorIcEEEC2B7v160006IDnEEPKc, symObjAddr: 0x1C90, symBinAddr: 0x100004020, symSize: 0x60 }
  - { offsetInCU: 0xE264, offset: 0xE264, size: 0x8, addend: 0x0, symName: __ZNSt3__117__compressed_pairINS_12basic_stringIcNS_11char_traitsIcEENS_9allocatorIcEEE5__repES5_EC1B7v160006INS_18__default_init_tagESA_EEOT_OT0_, symObjAddr: 0x1CF0, symBinAddr: 0x100004080, symSize: 0x30 }
  - { offsetInCU: 0xE2BC, offset: 0xE2BC, size: 0x8, addend: 0x0, symName: __ZNSt3__111char_traitsIcE6lengthEPKc, symObjAddr: 0x1D20, symBinAddr: 0x1000040B0, symSize: 0x30 }
  - { offsetInCU: 0xE2DF, offset: 0xE2DF, size: 0x8, addend: 0x0, symName: __ZNSt3__117__compressed_pairINS_12basic_stringIcNS_11char_traitsIcEENS_9allocatorIcEEE5__repES5_EC2B7v160006INS_18__default_init_tagESA_EEOT_OT0_, symObjAddr: 0x1D60, symBinAddr: 0x1000040F0, symSize: 0x30 }
  - { offsetInCU: 0xE337, offset: 0xE337, size: 0x8, addend: 0x0, symName: __ZNSt3__122__compressed_pair_elemINS_12basic_stringIcNS_11char_traitsIcEENS_9allocatorIcEEE5__repELi0ELb0EEC2B7v160006ENS_18__default_init_tagE, symObjAddr: 0x1D90, symBinAddr: 0x100004120, symSize: 0x10 }
  - { offsetInCU: 0xE36B, offset: 0xE36B, size: 0x8, addend: 0x0, symName: __ZNSt3__122__compressed_pair_elemINS_9allocatorIcEELi1ELb1EEC2B7v160006ENS_18__default_init_tagE, symObjAddr: 0x1DA0, symBinAddr: 0x100004130, symSize: 0x20 }
  - { offsetInCU: 0xE39F, offset: 0xE39F, size: 0x8, addend: 0x0, symName: __ZNSt3__19allocatorIcEC2B7v160006Ev, symObjAddr: 0x1DC0, symBinAddr: 0x100004150, symSize: 0x20 }
  - { offsetInCU: 0xE3C9, offset: 0xE3C9, size: 0x8, addend: 0x0, symName: __ZNSt3__116__non_trivial_ifILb1ENS_9allocatorIcEEEC2B7v160006Ev, symObjAddr: 0x1DE0, symBinAddr: 0x100004170, symSize: 0x10 }
  - { offsetInCU: 0xE3F3, offset: 0xE3F3, size: 0x8, addend: 0x0, symName: __ZNSt3__13mapINS_5tupleIJNS_12basic_stringIcNS_11char_traitsIcEENS_9allocatorIcEEEES7_iEEEiNS_4lessIS8_EENS5_INS_4pairIKS8_iEEEEEC2B7v160006ESt16initializer_listISD_ERKSA_, symObjAddr: 0x1E20, symBinAddr: 0x1000041B0, symSize: 0x90 }
  - { offsetInCU: 0xE43B, offset: 0xE43B, size: 0x8, addend: 0x0, symName: __ZNSt3__119__map_value_compareINS_5tupleIJNS_12basic_stringIcNS_11char_traitsIcEENS_9allocatorIcEEEES7_iEEENS_12__value_typeIS8_iEENS_4lessIS8_EELb1EEC1B7v160006ESC_, symObjAddr: 0x1EB0, symBinAddr: 0x100004240, symSize: 0x20 }
  - { offsetInCU: 0xE474, offset: 0xE474, size: 0x8, addend: 0x0, symName: __ZNSt3__16__treeINS_12__value_typeINS_5tupleIJNS_12basic_stringIcNS_11char_traitsIcEENS_9allocatorIcEEEES8_iEEEiEENS_19__map_value_compareIS9_SA_NS_4lessIS9_EELb1EEENS6_ISA_EEEC1ERKSE_, symObjAddr: 0x1ED0, symBinAddr: 0x100004260, symSize: 0x30 }
  - { offsetInCU: 0xE4AF, offset: 0xE4AF, size: 0x8, addend: 0x0, symName: __ZNSt3__13mapINS_5tupleIJNS_12basic_stringIcNS_11char_traitsIcEENS_9allocatorIcEEEES7_iEEEiNS_4lessIS8_EENS5_INS_4pairIKS8_iEEEEE6insertB7v160006IPKSD_EEvT_SJ_, symObjAddr: 0x1F00, symBinAddr: 0x100004290, symSize: 0x80 }
  - { offsetInCU: 0xE519, offset: 0xE519, size: 0x8, addend: 0x0, symName: __ZNKSt16initializer_listINSt3__14pairIKNS0_5tupleIJNS0_12basic_stringIcNS0_11char_traitsIcEENS0_9allocatorIcEEEES8_iEEEiEEE5beginB7v160006Ev, symObjAddr: 0x1F80, symBinAddr: 0x100004310, symSize: 0x20 }
  - { offsetInCU: 0xE53F, offset: 0xE53F, size: 0x8, addend: 0x0, symName: __ZNKSt16initializer_listINSt3__14pairIKNS0_5tupleIJNS0_12basic_stringIcNS0_11char_traitsIcEENS0_9allocatorIcEEEES8_iEEEiEEE3endB7v160006Ev, symObjAddr: 0x1FA0, symBinAddr: 0x100004330, symSize: 0x20 }
  - { offsetInCU: 0xE565, offset: 0xE565, size: 0x8, addend: 0x0, symName: __ZNSt3__16__treeINS_12__value_typeINS_5tupleIJNS_12basic_stringIcNS_11char_traitsIcEENS_9allocatorIcEEEES8_iEEEiEENS_19__map_value_compareIS9_SA_NS_4lessIS9_EELb1EEENS6_ISA_EEED1Ev, symObjAddr: 0x1FC0, symBinAddr: 0x100004350, symSize: 0x20 }
  - { offsetInCU: 0xE591, offset: 0xE591, size: 0x8, addend: 0x0, symName: __ZNSt3__119__map_value_compareINS_5tupleIJNS_12basic_stringIcNS_11char_traitsIcEENS_9allocatorIcEEEES7_iEEENS_12__value_typeIS8_iEENS_4lessIS8_EELb1EEC2B7v160006ESC_, symObjAddr: 0x1FE0, symBinAddr: 0x100004370, symSize: 0x10 }
  - { offsetInCU: 0xE5CA, offset: 0xE5CA, size: 0x8, addend: 0x0, symName: __ZNSt3__16__treeINS_12__value_typeINS_5tupleIJNS_12basic_stringIcNS_11char_traitsIcEENS_9allocatorIcEEEES8_iEEEiEENS_19__map_value_compareIS9_SA_NS_4lessIS9_EELb1EEENS6_ISA_EEEC2ERKSE_, symObjAddr: 0x1FF0, symBinAddr: 0x100004380, symSize: 0x80 }
  - { offsetInCU: 0xE605, offset: 0xE605, size: 0x8, addend: 0x0, symName: __ZNSt3__117__compressed_pairINS_15__tree_end_nodeIPNS_16__tree_node_baseIPvEEEENS_9allocatorINS_11__tree_nodeINS_12__value_typeINS_5tupleIJNS_12basic_stringIcNS_11char_traitsIcEENS7_IcEEEESF_iEEEiEES3_EEEEEC1B7v160006ILb1EvEEv, symObjAddr: 0x2070, symBinAddr: 0x100004400, symSize: 0x20 }
  - { offsetInCU: 0xE63A, offset: 0xE63A, size: 0x8, addend: 0x0, symName: __ZNSt3__117__compressed_pairImNS_19__map_value_compareINS_5tupleIJNS_12basic_stringIcNS_11char_traitsIcEENS_9allocatorIcEEEES8_iEEENS_12__value_typeIS9_iEENS_4lessIS9_EELb1EEEEC1B7v160006IiRKSE_EEOT_OT0_, symObjAddr: 0x2090, symBinAddr: 0x100004420, symSize: 0x30 }
  - { offsetInCU: 0xE692, offset: 0xE692, size: 0x8, addend: 0x0, symName: __ZNSt3__16__treeINS_12__value_typeINS_5tupleIJNS_12basic_stringIcNS_11char_traitsIcEENS_9allocatorIcEEEES8_iEEEiEENS_19__map_value_compareIS9_SA_NS_4lessIS9_EELb1EEENS6_ISA_EEE10__end_nodeB7v160006Ev, symObjAddr: 0x20C0, symBinAddr: 0x100004450, symSize: 0x30 }
  - { offsetInCU: 0xE6B8, offset: 0xE6B8, size: 0x8, addend: 0x0, symName: __ZNSt3__16__treeINS_12__value_typeINS_5tupleIJNS_12basic_stringIcNS_11char_traitsIcEENS_9allocatorIcEEEES8_iEEEiEENS_19__map_value_compareIS9_SA_NS_4lessIS9_EELb1EEENS6_ISA_EEE12__begin_nodeB7v160006Ev, symObjAddr: 0x20F0, symBinAddr: 0x100004480, symSize: 0x10 }
  - { offsetInCU: 0xE6DE, offset: 0xE6DE, size: 0x8, addend: 0x0, symName: __ZNSt3__117__compressed_pairINS_15__tree_end_nodeIPNS_16__tree_node_baseIPvEEEENS_9allocatorINS_11__tree_nodeINS_12__value_typeINS_5tupleIJNS_12basic_stringIcNS_11char_traitsIcEENS7_IcEEEESF_iEEEiEES3_EEEEEC2B7v160006ILb1EvEEv, symObjAddr: 0x2100, symBinAddr: 0x100004490, symSize: 0x30 }
  - { offsetInCU: 0xE713, offset: 0xE713, size: 0x8, addend: 0x0, symName: __ZNSt3__122__compressed_pair_elemINS_15__tree_end_nodeIPNS_16__tree_node_baseIPvEEEELi0ELb0EEC2B7v160006ENS_16__value_init_tagE, symObjAddr: 0x2130, symBinAddr: 0x1000044C0, symSize: 0x20 }
  - { offsetInCU: 0xE747, offset: 0xE747, size: 0x8, addend: 0x0, symName: __ZNSt3__122__compressed_pair_elemINS_9allocatorINS_11__tree_nodeINS_12__value_typeINS_5tupleIJNS_12basic_stringIcNS_11char_traitsIcEENS1_IcEEEES9_iEEEiEEPvEEEELi1ELb1EEC2B7v160006ENS_16__value_init_tagE, symObjAddr: 0x2150, symBinAddr: 0x1000044E0, symSize: 0x20 }
  - { offsetInCU: 0xE77B, offset: 0xE77B, size: 0x8, addend: 0x0, symName: __ZNSt3__115__tree_end_nodeIPNS_16__tree_node_baseIPvEEEC1B7v160006Ev, symObjAddr: 0x2170, symBinAddr: 0x100004500, symSize: 0x20 }
  - { offsetInCU: 0xE7A5, offset: 0xE7A5, size: 0x8, addend: 0x0, symName: __ZNSt3__115__tree_end_nodeIPNS_16__tree_node_baseIPvEEEC2B7v160006Ev, symObjAddr: 0x2190, symBinAddr: 0x100004520, symSize: 0x20 }
  - { offsetInCU: 0xE7CF, offset: 0xE7CF, size: 0x8, addend: 0x0, symName: __ZNSt3__19allocatorINS_11__tree_nodeINS_12__value_typeINS_5tupleIJNS_12basic_stringIcNS_11char_traitsIcEENS0_IcEEEES8_iEEEiEEPvEEEC2B7v160006Ev, symObjAddr: 0x21B0, symBinAddr: 0x100004540, symSize: 0x20 }
  - { offsetInCU: 0xE7F9, offset: 0xE7F9, size: 0x8, addend: 0x0, symName: __ZNSt3__116__non_trivial_ifILb1ENS_9allocatorINS_11__tree_nodeINS_12__value_typeINS_5tupleIJNS_12basic_stringIcNS_11char_traitsIcEENS1_IcEEEES9_iEEEiEEPvEEEEEC2B7v160006Ev, symObjAddr: 0x21D0, symBinAddr: 0x100004560, symSize: 0x10 }
  - { offsetInCU: 0xE823, offset: 0xE823, size: 0x8, addend: 0x0, symName: __ZNSt3__117__compressed_pairImNS_19__map_value_compareINS_5tupleIJNS_12basic_stringIcNS_11char_traitsIcEENS_9allocatorIcEEEES8_iEEENS_12__value_typeIS9_iEENS_4lessIS9_EELb1EEEEC2B7v160006IiRKSE_EEOT_OT0_, symObjAddr: 0x21E0, symBinAddr: 0x100004570, symSize: 0x40 }
  - { offsetInCU: 0xE87B, offset: 0xE87B, size: 0x8, addend: 0x0, symName: __ZNSt3__122__compressed_pair_elemImLi0ELb0EEC2B7v160006IivEEOT_, symObjAddr: 0x2220, symBinAddr: 0x1000045B0, symSize: 0x20 }
  - { offsetInCU: 0xE8BD, offset: 0xE8BD, size: 0x8, addend: 0x0, symName: __ZNSt3__122__compressed_pair_elemINS_19__map_value_compareINS_5tupleIJNS_12basic_stringIcNS_11char_traitsIcEENS_9allocatorIcEEEES8_iEEENS_12__value_typeIS9_iEENS_4lessIS9_EELb1EEELi1ELb1EEC2B7v160006IRKSE_vEEOT_, symObjAddr: 0x2240, symBinAddr: 0x1000045D0, symSize: 0x10 }
  - { offsetInCU: 0xE8FF, offset: 0xE8FF, size: 0x8, addend: 0x0, symName: __ZNSt3__114pointer_traitsIPNS_15__tree_end_nodeIPNS_16__tree_node_baseIPvEEEEE10pointer_toB7v160006ERS6_, symObjAddr: 0x2250, symBinAddr: 0x1000045E0, symSize: 0x10 }
  - { offsetInCU: 0xE922, offset: 0xE922, size: 0x8, addend: 0x0, symName: __ZNSt3__117__compressed_pairINS_15__tree_end_nodeIPNS_16__tree_node_baseIPvEEEENS_9allocatorINS_11__tree_nodeINS_12__value_typeINS_5tupleIJNS_12basic_stringIcNS_11char_traitsIcEENS7_IcEEEESF_iEEEiEES3_EEEEE5firstB7v160006Ev, symObjAddr: 0x2260, symBinAddr: 0x1000045F0, symSize: 0x20 }
  - { offsetInCU: 0xE948, offset: 0xE948, size: 0x8, addend: 0x0, symName: __ZNSt3__122__compressed_pair_elemINS_15__tree_end_nodeIPNS_16__tree_node_baseIPvEEEELi0ELb0EE5__getB7v160006Ev, symObjAddr: 0x2280, symBinAddr: 0x100004610, symSize: 0x10 }
  - { offsetInCU: 0xE96E, offset: 0xE96E, size: 0x8, addend: 0x0, symName: __ZNKSt3__13mapINS_5tupleIJNS_12basic_stringIcNS_11char_traitsIcEENS_9allocatorIcEEEES7_iEEEiNS_4lessIS8_EENS5_INS_4pairIKS8_iEEEEE4cendB7v160006Ev, symObjAddr: 0x2290, symBinAddr: 0x100004620, symSize: 0x30 }
  - { offsetInCU: 0xE994, offset: 0xE994, size: 0x8, addend: 0x0, symName: __ZNSt3__13mapINS_5tupleIJNS_12basic_stringIcNS_11char_traitsIcEENS_9allocatorIcEEEES7_iEEEiNS_4lessIS8_EENS5_INS_4pairIKS8_iEEEEE6insertB7v160006ENS_20__map_const_iteratorINS_21__tree_const_iteratorINS_12__value_typeIS8_iEEPNS_11__tree_nodeISJ_PvEElEEEERKSD_, symObjAddr: 0x22C0, symBinAddr: 0x100004650, symSize: 0x50 }
  - { offsetInCU: 0xE9D8, offset: 0xE9D8, size: 0x8, addend: 0x0, symName: __ZNSt3__120__map_const_iteratorINS_21__tree_const_iteratorINS_12__value_typeINS_5tupleIJNS_12basic_stringIcNS_11char_traitsIcEENS_9allocatorIcEEEES9_iEEEiEEPNS_11__tree_nodeISB_PvEElEEEC1B7v160006ESG_, symObjAddr: 0x2310, symBinAddr: 0x1000046A0, symSize: 0x30 }
  - { offsetInCU: 0xEA11, offset: 0xEA11, size: 0x8, addend: 0x0, symName: __ZNKSt3__13mapINS_5tupleIJNS_12basic_stringIcNS_11char_traitsIcEENS_9allocatorIcEEEES7_iEEEiNS_4lessIS8_EENS5_INS_4pairIKS8_iEEEEE3endB7v160006Ev, symObjAddr: 0x2340, symBinAddr: 0x1000046D0, symSize: 0x30 }
  - { offsetInCU: 0xEA37, offset: 0xEA37, size: 0x8, addend: 0x0, symName: __ZNKSt3__16__treeINS_12__value_typeINS_5tupleIJNS_12basic_stringIcNS_11char_traitsIcEENS_9allocatorIcEEEES8_iEEEiEENS_19__map_value_compareIS9_SA_NS_4lessIS9_EELb1EEENS6_ISA_EEE3endB7v160006Ev, symObjAddr: 0x2370, symBinAddr: 0x100004700, symSize: 0x30 }
  - { offsetInCU: 0xEA5D, offset: 0xEA5D, size: 0x8, addend: 0x0, symName: __ZNKSt3__16__treeINS_12__value_typeINS_5tupleIJNS_12basic_stringIcNS_11char_traitsIcEENS_9allocatorIcEEEES8_iEEEiEENS_19__map_value_compareIS9_SA_NS_4lessIS9_EELb1EEENS6_ISA_EEE10__end_nodeB7v160006Ev, symObjAddr: 0x23A0, symBinAddr: 0x100004730, symSize: 0x30 }
  - { offsetInCU: 0xEA83, offset: 0xEA83, size: 0x8, addend: 0x0, symName: __ZNSt3__121__tree_const_iteratorINS_12__value_typeINS_5tupleIJNS_12basic_stringIcNS_11char_traitsIcEENS_9allocatorIcEEEES8_iEEEiEEPNS_11__tree_nodeISA_PvEElEC1B7v160006EPNS_15__tree_end_nodeIPNS_16__tree_node_baseISC_EEEE, symObjAddr: 0x23D0, symBinAddr: 0x100004760, symSize: 0x30 }
  - { offsetInCU: 0xEABC, offset: 0xEABC, size: 0x8, addend: 0x0, symName: __ZNKSt3__117__compressed_pairINS_15__tree_end_nodeIPNS_16__tree_node_baseIPvEEEENS_9allocatorINS_11__tree_nodeINS_12__value_typeINS_5tupleIJNS_12basic_stringIcNS_11char_traitsIcEENS7_IcEEEESF_iEEEiEES3_EEEEE5firstB7v160006Ev, symObjAddr: 0x2400, symBinAddr: 0x100004790, symSize: 0x20 }
  - { offsetInCU: 0xEAE2, offset: 0xEAE2, size: 0x8, addend: 0x0, symName: __ZNKSt3__122__compressed_pair_elemINS_15__tree_end_nodeIPNS_16__tree_node_baseIPvEEEELi0ELb0EE5__getB7v160006Ev, symObjAddr: 0x2420, symBinAddr: 0x1000047B0, symSize: 0x10 }
  - { offsetInCU: 0xEB08, offset: 0xEB08, size: 0x8, addend: 0x0, symName: __ZNSt3__121__tree_const_iteratorINS_12__value_typeINS_5tupleIJNS_12basic_stringIcNS_11char_traitsIcEENS_9allocatorIcEEEES8_iEEEiEEPNS_11__tree_nodeISA_PvEElEC2B7v160006EPNS_15__tree_end_nodeIPNS_16__tree_node_baseISC_EEEE, symObjAddr: 0x2430, symBinAddr: 0x1000047C0, symSize: 0x20 }
  - { offsetInCU: 0xEB41, offset: 0xEB41, size: 0x8, addend: 0x0, symName: __ZNSt3__16__treeINS_12__value_typeINS_5tupleIJNS_12basic_stringIcNS_11char_traitsIcEENS_9allocatorIcEEEES8_iEEEiEENS_19__map_value_compareIS9_SA_NS_4lessIS9_EELb1EEENS6_ISA_EEE15__insert_uniqueB7v160006ENS_21__tree_const_iteratorISA_PNS_11__tree_nodeISA_PvEElEERKNS_4pairIKS9_iEE, symObjAddr: 0x2450, symBinAddr: 0x1000047E0, symSize: 0x60 }
  - { offsetInCU: 0xEB85, offset: 0xEB85, size: 0x8, addend: 0x0, symName: __ZNSt3__114__map_iteratorINS_15__tree_iteratorINS_12__value_typeINS_5tupleIJNS_12basic_stringIcNS_11char_traitsIcEENS_9allocatorIcEEEES9_iEEEiEEPNS_11__tree_nodeISB_PvEElEEEC1B7v160006ESG_, symObjAddr: 0x24B0, symBinAddr: 0x100004840, symSize: 0x30 }
  - { offsetInCU: 0xEBBE, offset: 0xEBBE, size: 0x8, addend: 0x0, symName: __ZNSt3__16__treeINS_12__value_typeINS_5tupleIJNS_12basic_stringIcNS_11char_traitsIcEENS_9allocatorIcEEEES8_iEEEiEENS_19__map_value_compareIS9_SA_NS_4lessIS9_EELb1EEENS6_ISA_EEE30__emplace_hint_unique_key_argsIS9_JRKNS_4pairIKS9_iEEEEENSI_INS_15__tree_iteratorISA_PNS_11__tree_nodeISA_PvEElEEbEENS_21__tree_const_iteratorISA_SR_lEERKT_DpOT0_, symObjAddr: 0x24E0, symBinAddr: 0x100004870, symSize: 0x110 }
  - { offsetInCU: 0xEC93, offset: 0xEC93, size: 0x8, addend: 0x0, symName: __ZNSt3__122__tree_key_value_typesINS_12__value_typeINS_5tupleIJNS_12basic_stringIcNS_11char_traitsIcEENS_9allocatorIcEEEES8_iEEEiEEE9__get_keyB7v160006IKNS_4pairIKS9_iEEEENS_9enable_ifIXsr17__is_same_uncvrefIT_SF_EE5valueERSE_E4typeERSI_, symObjAddr: 0x25F0, symBinAddr: 0x100004980, symSize: 0x10 }
  - { offsetInCU: 0xECC0, offset: 0xECC0, size: 0x8, addend: 0x0, symName: __ZNSt3__16__treeINS_12__value_typeINS_5tupleIJNS_12basic_stringIcNS_11char_traitsIcEENS_9allocatorIcEEEES8_iEEEiEENS_19__map_value_compareIS9_SA_NS_4lessIS9_EELb1EEENS6_ISA_EEE12__find_equalIS9_EERPNS_16__tree_node_baseIPvEENS_21__tree_const_iteratorISA_PNS_11__tree_nodeISA_SJ_EElEERPNS_15__tree_end_nodeISL_EESM_RKT_, symObjAddr: 0x2600, symBinAddr: 0x100004990, symSize: 0x330 }
  - { offsetInCU: 0xED69, offset: 0xED69, size: 0x8, addend: 0x0, symName: __ZNSt3__16__treeINS_12__value_typeINS_5tupleIJNS_12basic_stringIcNS_11char_traitsIcEENS_9allocatorIcEEEES8_iEEEiEENS_19__map_value_compareIS9_SA_NS_4lessIS9_EELb1EEENS6_ISA_EEE16__construct_nodeIJRKNS_4pairIKS9_iEEEEENS_10unique_ptrINS_11__tree_nodeISA_PvEENS_22__tree_node_destructorINS6_ISQ_EEEEEEDpOT_, symObjAddr: 0x2930, symBinAddr: 0x100004CC0, symSize: 0x100 }
  - { offsetInCU: 0xEDCA, offset: 0xEDCA, size: 0x8, addend: 0x0, symName: __ZNSt3__16__treeINS_12__value_typeINS_5tupleIJNS_12basic_stringIcNS_11char_traitsIcEENS_9allocatorIcEEEES8_iEEEiEENS_19__map_value_compareIS9_SA_NS_4lessIS9_EELb1EEENS6_ISA_EEE16__insert_node_atEPNS_15__tree_end_nodeIPNS_16__tree_node_baseIPvEEEERSL_SL_, symObjAddr: 0x2A30, symBinAddr: 0x100004DC0, symSize: 0xC0 }
  - { offsetInCU: 0xEE1F, offset: 0xEE1F, size: 0x8, addend: 0x0, symName: __ZNKSt3__110unique_ptrINS_11__tree_nodeINS_12__value_typeINS_5tupleIJNS_12basic_stringIcNS_11char_traitsIcEENS_9allocatorIcEEEES9_iEEEiEEPvEENS_22__tree_node_destructorINS7_ISD_EEEEE3getB7v160006Ev, symObjAddr: 0x2AF0, symBinAddr: 0x100004E80, symSize: 0x20 }
  - { offsetInCU: 0xEE45, offset: 0xEE45, size: 0x8, addend: 0x0, symName: __ZNSt3__110unique_ptrINS_11__tree_nodeINS_12__value_typeINS_5tupleIJNS_12basic_stringIcNS_11char_traitsIcEENS_9allocatorIcEEEES9_iEEEiEEPvEENS_22__tree_node_destructorINS7_ISD_EEEEE7releaseB7v160006Ev, symObjAddr: 0x2B10, symBinAddr: 0x100004EA0, symSize: 0x40 }
  - { offsetInCU: 0xEE7A, offset: 0xEE7A, size: 0x8, addend: 0x0, symName: __ZNSt3__110unique_ptrINS_11__tree_nodeINS_12__value_typeINS_5tupleIJNS_12basic_stringIcNS_11char_traitsIcEENS_9allocatorIcEEEES9_iEEEiEEPvEENS_22__tree_node_destructorINS7_ISD_EEEEED1B7v160006Ev, symObjAddr: 0x2B50, symBinAddr: 0x100004EE0, symSize: 0x20 }
  - { offsetInCU: 0xEEA4, offset: 0xEEA4, size: 0x8, addend: 0x0, symName: __ZNSt3__115__tree_iteratorINS_12__value_typeINS_5tupleIJNS_12basic_stringIcNS_11char_traitsIcEENS_9allocatorIcEEEES8_iEEEiEEPNS_11__tree_nodeISA_PvEElEC1B7v160006ESE_, symObjAddr: 0x2B70, symBinAddr: 0x100004F00, symSize: 0x30 }
  - { offsetInCU: 0xEEE7, offset: 0xEEE7, size: 0x8, addend: 0x0, symName: __ZNSt3__14pairINS_15__tree_iteratorINS_12__value_typeINS_5tupleIJNS_12basic_stringIcNS_11char_traitsIcEENS_9allocatorIcEEEES9_iEEEiEEPNS_11__tree_nodeISB_PvEElEEbEC1B7v160006ISG_RbLSD_0EEEOT_OT0_, symObjAddr: 0x2BA0, symBinAddr: 0x100004F30, symSize: 0x30 }
  - { offsetInCU: 0xEF45, offset: 0xEF45, size: 0x8, addend: 0x0, symName: __ZNSt3__16__treeINS_12__value_typeINS_5tupleIJNS_12basic_stringIcNS_11char_traitsIcEENS_9allocatorIcEEEES8_iEEEiEENS_19__map_value_compareIS9_SA_NS_4lessIS9_EELb1EEENS6_ISA_EEE3endB7v160006Ev, symObjAddr: 0x2C00, symBinAddr: 0x100004F90, symSize: 0x30 }
  - { offsetInCU: 0xEF6B, offset: 0xEF6B, size: 0x8, addend: 0x0, symName: __ZNSt3__121__tree_const_iteratorINS_12__value_typeINS_5tupleIJNS_12basic_stringIcNS_11char_traitsIcEENS_9allocatorIcEEEES8_iEEEiEEPNS_11__tree_nodeISA_PvEElEC1B7v160006ENS_15__tree_iteratorISA_SE_lEE, symObjAddr: 0x2C30, symBinAddr: 0x100004FC0, symSize: 0x30 }
  - { offsetInCU: 0xEFA4, offset: 0xEFA4, size: 0x8, addend: 0x0, symName: __ZNSt3__16__treeINS_12__value_typeINS_5tupleIJNS_12basic_stringIcNS_11char_traitsIcEENS_9allocatorIcEEEES8_iEEEiEENS_19__map_value_compareIS9_SA_NS_4lessIS9_EELb1EEENS6_ISA_EEE10value_compB7v160006Ev, symObjAddr: 0x2C60, symBinAddr: 0x100004FF0, symSize: 0x20 }
  - { offsetInCU: 0xEFCA, offset: 0xEFCA, size: 0x8, addend: 0x0, symName: __ZNKSt3__119__map_value_compareINS_5tupleIJNS_12basic_stringIcNS_11char_traitsIcEENS_9allocatorIcEEEES7_iEEENS_12__value_typeIS8_iEENS_4lessIS8_EELb1EEclB7v160006ERKS8_RKSA_, symObjAddr: 0x2C80, symBinAddr: 0x100005010, symSize: 0x50 }
  - { offsetInCU: 0xF00E, offset: 0xF00E, size: 0x8, addend: 0x0, symName: __ZNKSt3__121__tree_const_iteratorINS_12__value_typeINS_5tupleIJNS_12basic_stringIcNS_11char_traitsIcEENS_9allocatorIcEEEES8_iEEEiEEPNS_11__tree_nodeISA_PvEElEdeB7v160006Ev, symObjAddr: 0x2CD0, symBinAddr: 0x100005060, symSize: 0x20 }
  - { offsetInCU: 0xF034, offset: 0xF034, size: 0x8, addend: 0x0, symName: __ZNSt3__16__treeINS_12__value_typeINS_5tupleIJNS_12basic_stringIcNS_11char_traitsIcEENS_9allocatorIcEEEES8_iEEEiEENS_19__map_value_compareIS9_SA_NS_4lessIS9_EELb1EEENS6_ISA_EEE5beginB7v160006Ev, symObjAddr: 0x2CF0, symBinAddr: 0x100005080, symSize: 0x30 }
  - { offsetInCU: 0xF05A, offset: 0xF05A, size: 0x8, addend: 0x0, symName: __ZNKSt3__119__map_value_compareINS_5tupleIJNS_12basic_stringIcNS_11char_traitsIcEENS_9allocatorIcEEEES7_iEEENS_12__value_typeIS8_iEENS_4lessIS8_EELb1EEclB7v160006ERKSA_RKS8_, symObjAddr: 0x2D20, symBinAddr: 0x1000050B0, symSize: 0x40 }
  - { offsetInCU: 0xF09E, offset: 0xF09E, size: 0x8, addend: 0x0, symName: __ZNSt3__121__tree_const_iteratorINS_12__value_typeINS_5tupleIJNS_12basic_stringIcNS_11char_traitsIcEENS_9allocatorIcEEEES8_iEEEiEEPNS_11__tree_nodeISA_PvEElEmmB7v160006Ev, symObjAddr: 0x2D60, symBinAddr: 0x1000050F0, symSize: 0x30 }
  - { offsetInCU: 0xF0C4, offset: 0xF0C4, size: 0x8, addend: 0x0, symName: __ZNSt3__16__treeINS_12__value_typeINS_5tupleIJNS_12basic_stringIcNS_11char_traitsIcEENS_9allocatorIcEEEES8_iEEEiEENS_19__map_value_compareIS9_SA_NS_4lessIS9_EELb1EEENS6_ISA_EEE12__find_equalIS9_EERPNS_16__tree_node_baseIPvEERPNS_15__tree_end_nodeISL_EERKT_, symObjAddr: 0x2D90, symBinAddr: 0x100005120, symSize: 0x180 }
  - { offsetInCU: 0xF131, offset: 0xF131, size: 0x8, addend: 0x0, symName: __ZNKSt3__121__tree_const_iteratorINS_12__value_typeINS_5tupleIJNS_12basic_stringIcNS_11char_traitsIcEENS_9allocatorIcEEEES8_iEEEiEEPNS_11__tree_nodeISA_PvEElE8__get_npB7v160006Ev, symObjAddr: 0x2F60, symBinAddr: 0x1000052F0, symSize: 0x20 }
  - { offsetInCU: 0xF157, offset: 0xF157, size: 0x8, addend: 0x0, symName: __ZNSt3__115__tree_iteratorINS_12__value_typeINS_5tupleIJNS_12basic_stringIcNS_11char_traitsIcEENS_9allocatorIcEEEES8_iEEEiEEPNS_11__tree_nodeISA_PvEElEC1B7v160006EPNS_15__tree_end_nodeIPNS_16__tree_node_baseISC_EEEE, symObjAddr: 0x2F80, symBinAddr: 0x100005310, symSize: 0x30 }
  - { offsetInCU: 0xF190, offset: 0xF190, size: 0x8, addend: 0x0, symName: __ZNSt3__115__tree_iteratorINS_12__value_typeINS_5tupleIJNS_12basic_stringIcNS_11char_traitsIcEENS_9allocatorIcEEEES8_iEEEiEEPNS_11__tree_nodeISA_PvEElEC2B7v160006EPNS_15__tree_end_nodeIPNS_16__tree_node_baseISC_EEEE, symObjAddr: 0x2FB0, symBinAddr: 0x100005340, symSize: 0x20 }
  - { offsetInCU: 0xF1C9, offset: 0xF1C9, size: 0x8, addend: 0x0, symName: __ZNSt3__121__tree_const_iteratorINS_12__value_typeINS_5tupleIJNS_12basic_stringIcNS_11char_traitsIcEENS_9allocatorIcEEEES8_iEEEiEEPNS_11__tree_nodeISA_PvEElEC2B7v160006ENS_15__tree_iteratorISA_SE_lEE, symObjAddr: 0x2FD0, symBinAddr: 0x100005360, symSize: 0x20 }
  - { offsetInCU: 0xF202, offset: 0xF202, size: 0x8, addend: 0x0, symName: __ZNSt3__117__compressed_pairImNS_19__map_value_compareINS_5tupleIJNS_12basic_stringIcNS_11char_traitsIcEENS_9allocatorIcEEEES8_iEEENS_12__value_typeIS9_iEENS_4lessIS9_EELb1EEEE6secondB7v160006Ev, symObjAddr: 0x2FF0, symBinAddr: 0x100005380, symSize: 0x20 }
  - { offsetInCU: 0xF228, offset: 0xF228, size: 0x8, addend: 0x0, symName: __ZNSt3__122__compressed_pair_elemINS_19__map_value_compareINS_5tupleIJNS_12basic_stringIcNS_11char_traitsIcEENS_9allocatorIcEEEES8_iEEENS_12__value_typeIS9_iEENS_4lessIS9_EELb1EEELi1ELb1EE5__getB7v160006Ev, symObjAddr: 0x3010, symBinAddr: 0x1000053A0, symSize: 0x10 }
  - { offsetInCU: 0xF24E, offset: 0xF24E, size: 0x8, addend: 0x0, symName: __ZNKSt3__14lessINS_5tupleIJNS_12basic_stringIcNS_11char_traitsIcEENS_9allocatorIcEEEES7_iEEEEclB7v160006ERKS8_SB_, symObjAddr: 0x3020, symBinAddr: 0x1000053B0, symSize: 0x30 }
  - { offsetInCU: 0xF292, offset: 0xF292, size: 0x8, addend: 0x0, symName: __ZNKSt3__112__value_typeINS_5tupleIJNS_12basic_stringIcNS_11char_traitsIcEENS_9allocatorIcEEEES7_iEEEiE11__get_valueB7v160006Ev, symObjAddr: 0x3050, symBinAddr: 0x1000053E0, symSize: 0x10 }
  - { offsetInCU: 0xF2BD, offset: 0xF2BD, size: 0x8, addend: 0x0, symName: __ZNSt3__112__tuple_lessILm3EEclB7v160006INS_5tupleIJNS_12basic_stringIcNS_11char_traitsIcEENS_9allocatorIcEEEES9_iEEESA_EEbRKT_RKT0_, symObjAddr: 0x3090, symBinAddr: 0x100005420, symSize: 0xB0 }
  - { offsetInCU: 0xF327, offset: 0xF327, size: 0x8, addend: 0x0, symName: __ZNSt3__112__tuple_lessILm2EEclB7v160006INS_5tupleIJNS_12basic_stringIcNS_11char_traitsIcEENS_9allocatorIcEEEES9_iEEESA_EEbRKT_RKT0_, symObjAddr: 0x3190, symBinAddr: 0x100005520, symSize: 0xB0 }
  - { offsetInCU: 0xF38C, offset: 0xF38C, size: 0x8, addend: 0x0, symName: __ZNKSt3__112basic_stringIcNS_11char_traitsIcEENS_9allocatorIcEEE7compareB7v160006ERKS5_, symObjAddr: 0x3240, symBinAddr: 0x1000055D0, symSize: 0x40 }
  - { offsetInCU: 0xF3C3, offset: 0xF3C3, size: 0x8, addend: 0x0, symName: __ZNKSt3__112basic_stringIcNS_11char_traitsIcEENS_9allocatorIcEEE7compareINS_17basic_string_viewIcS2_EEEENS_9enable_ifIXsr33__can_be_converted_to_string_viewIcS2_T_EE5valueEiE4typeERKSA_, symObjAddr: 0x3280, symBinAddr: 0x100005610, symSize: 0xF0 }
  - { offsetInCU: 0xF440, offset: 0xF440, size: 0x8, addend: 0x0, symName: __ZNKSt3__112basic_stringIcNS_11char_traitsIcEENS_9allocatorIcEEEcvNS_17basic_string_viewIcS2_EEB7v160006Ev, symObjAddr: 0x3370, symBinAddr: 0x100005700, symSize: 0x50 }
  - { offsetInCU: 0xF466, offset: 0xF466, size: 0x8, addend: 0x0, symName: __ZNKSt3__112basic_stringIcNS_11char_traitsIcEENS_9allocatorIcEEE4sizeB7v160006Ev, symObjAddr: 0x33C0, symBinAddr: 0x100005750, symSize: 0x50 }
  - { offsetInCU: 0xF48C, offset: 0xF48C, size: 0x8, addend: 0x0, symName: __ZNKSt3__117basic_string_viewIcNS_11char_traitsIcEEE4sizeB7v160006Ev, symObjAddr: 0x3410, symBinAddr: 0x1000057A0, symSize: 0x20 }
  - { offsetInCU: 0xF4B2, offset: 0xF4B2, size: 0x8, addend: 0x0, symName: __ZNSt3__111char_traitsIcE7compareEPKcS3_m, symObjAddr: 0x3430, symBinAddr: 0x1000057C0, symSize: 0x60 }
  - { offsetInCU: 0xF4F1, offset: 0xF4F1, size: 0x8, addend: 0x0, symName: __ZNKSt3__112basic_stringIcNS_11char_traitsIcEENS_9allocatorIcEEE4dataB7v160006Ev, symObjAddr: 0x3490, symBinAddr: 0x100005820, symSize: 0x30 }
  - { offsetInCU: 0xF517, offset: 0xF517, size: 0x8, addend: 0x0, symName: __ZNKSt3__117basic_string_viewIcNS_11char_traitsIcEEE4dataB7v160006Ev, symObjAddr: 0x34C0, symBinAddr: 0x100005850, symSize: 0x20 }
  - { offsetInCU: 0xF53D, offset: 0xF53D, size: 0x8, addend: 0x0, symName: __ZNKSt3__112basic_stringIcNS_11char_traitsIcEENS_9allocatorIcEEE9__is_longB7v160006Ev, symObjAddr: 0x3510, symBinAddr: 0x1000058A0, symSize: 0x30 }
  - { offsetInCU: 0xF563, offset: 0xF563, size: 0x8, addend: 0x0, symName: __ZNKSt3__112basic_stringIcNS_11char_traitsIcEENS_9allocatorIcEEE15__get_long_sizeB7v160006Ev, symObjAddr: 0x3540, symBinAddr: 0x1000058D0, symSize: 0x20 }
  - { offsetInCU: 0xF589, offset: 0xF589, size: 0x8, addend: 0x0, symName: __ZNKSt3__112basic_stringIcNS_11char_traitsIcEENS_9allocatorIcEEE16__get_short_sizeB7v160006Ev, symObjAddr: 0x3560, symBinAddr: 0x1000058F0, symSize: 0x30 }
  - { offsetInCU: 0xF5AF, offset: 0xF5AF, size: 0x8, addend: 0x0, symName: __ZNKSt3__117__compressed_pairINS_12basic_stringIcNS_11char_traitsIcEENS_9allocatorIcEEE5__repES5_E5firstB7v160006Ev, symObjAddr: 0x3590, symBinAddr: 0x100005920, symSize: 0x20 }
  - { offsetInCU: 0xF5D5, offset: 0xF5D5, size: 0x8, addend: 0x0, symName: __ZNKSt3__122__compressed_pair_elemINS_12basic_stringIcNS_11char_traitsIcEENS_9allocatorIcEEE5__repELi0ELb0EE5__getB7v160006Ev, symObjAddr: 0x35B0, symBinAddr: 0x100005940, symSize: 0x10 }
  - { offsetInCU: 0xF5FB, offset: 0xF5FB, size: 0x8, addend: 0x0, symName: __ZNKSt3__112basic_stringIcNS_11char_traitsIcEENS_9allocatorIcEEE13__get_pointerB7v160006Ev, symObjAddr: 0x3600, symBinAddr: 0x100005990, symSize: 0x50 }
  - { offsetInCU: 0xF621, offset: 0xF621, size: 0x8, addend: 0x0, symName: __ZNKSt3__112basic_stringIcNS_11char_traitsIcEENS_9allocatorIcEEE18__get_long_pointerB7v160006Ev, symObjAddr: 0x3650, symBinAddr: 0x1000059E0, symSize: 0x20 }
  - { offsetInCU: 0xF647, offset: 0xF647, size: 0x8, addend: 0x0, symName: __ZNKSt3__112basic_stringIcNS_11char_traitsIcEENS_9allocatorIcEEE19__get_short_pointerB7v160006Ev, symObjAddr: 0x3670, symBinAddr: 0x100005A00, symSize: 0x30 }
  - { offsetInCU: 0xF66D, offset: 0xF66D, size: 0x8, addend: 0x0, symName: __ZNSt3__114pointer_traitsIPKcE10pointer_toB7v160006ERS1_, symObjAddr: 0x36A0, symBinAddr: 0x100005A30, symSize: 0x10 }
  - { offsetInCU: 0xF69A, offset: 0xF69A, size: 0x8, addend: 0x0, symName: __ZNKSt3__16__lessImmEclB7v160006ERKmS3_, symObjAddr: 0x3700, symBinAddr: 0x100005A90, symSize: 0x30 }
  - { offsetInCU: 0xF6DC, offset: 0xF6DC, size: 0x8, addend: 0x0, symName: __ZNSt3__117basic_string_viewIcNS_11char_traitsIcEEEC1B7v160006EPKcm, symObjAddr: 0x3730, symBinAddr: 0x100005AC0, symSize: 0x30 }
  - { offsetInCU: 0xF724, offset: 0xF724, size: 0x8, addend: 0x0, symName: __ZNSt3__117basic_string_viewIcNS_11char_traitsIcEEEC2B7v160006EPKcm, symObjAddr: 0x3760, symBinAddr: 0x100005AF0, symSize: 0x50 }
  - { offsetInCU: 0xF76C, offset: 0xF76C, size: 0x8, addend: 0x0, symName: __ZNKSt3__112__tuple_leafILm0ENS_12basic_stringIcNS_11char_traitsIcEENS_9allocatorIcEEEELb0EE3getB7v160006Ev, symObjAddr: 0x37B0, symBinAddr: 0x100005B40, symSize: 0x10 }
  - { offsetInCU: 0xF797, offset: 0xF797, size: 0x8, addend: 0x0, symName: __ZNSt3__112__tuple_lessILm1EEclB7v160006INS_5tupleIJNS_12basic_stringIcNS_11char_traitsIcEENS_9allocatorIcEEEES9_iEEESA_EEbRKT_RKT0_, symObjAddr: 0x37E0, symBinAddr: 0x100005B70, symSize: 0xA0 }
  - { offsetInCU: 0xF7FC, offset: 0xF7FC, size: 0x8, addend: 0x0, symName: __ZNKSt3__112__tuple_leafILm1ENS_12basic_stringIcNS_11char_traitsIcEENS_9allocatorIcEEEELb0EE3getB7v160006Ev, symObjAddr: 0x3880, symBinAddr: 0x100005C10, symSize: 0x10 }
  - { offsetInCU: 0xF827, offset: 0xF827, size: 0x8, addend: 0x0, symName: __ZNSt3__112__tuple_lessILm0EEclB7v160006INS_5tupleIJNS_12basic_stringIcNS_11char_traitsIcEENS_9allocatorIcEEEES9_iEEESA_EEbRKT_RKT0_, symObjAddr: 0x38B0, symBinAddr: 0x100005C40, symSize: 0x20 }
  - { offsetInCU: 0xF877, offset: 0xF877, size: 0x8, addend: 0x0, symName: __ZNKSt3__112__tuple_leafILm2EiLb0EE3getB7v160006Ev, symObjAddr: 0x38D0, symBinAddr: 0x100005C60, symSize: 0x10 }
  - { offsetInCU: 0xF89D, offset: 0xF89D, size: 0x8, addend: 0x0, symName: __ZNKSt3__116__tree_node_baseIPvE15__parent_unsafeB7v160006Ev, symObjAddr: 0x39E0, symBinAddr: 0x100005D70, symSize: 0x20 }
  - { offsetInCU: 0xF8C3, offset: 0xF8C3, size: 0x8, addend: 0x0, symName: __ZNKSt3__16__treeINS_12__value_typeINS_5tupleIJNS_12basic_stringIcNS_11char_traitsIcEENS_9allocatorIcEEEES8_iEEEiEENS_19__map_value_compareIS9_SA_NS_4lessIS9_EELb1EEENS6_ISA_EEE6__rootB7v160006Ev, symObjAddr: 0x3A00, symBinAddr: 0x100005D90, symSize: 0x20 }
  - { offsetInCU: 0xF8E9, offset: 0xF8E9, size: 0x8, addend: 0x0, symName: __ZNKSt3__16__treeINS_12__value_typeINS_5tupleIJNS_12basic_stringIcNS_11char_traitsIcEENS_9allocatorIcEEEES8_iEEEiEENS_19__map_value_compareIS9_SA_NS_4lessIS9_EELb1EEENS6_ISA_EEE10__root_ptrEv, symObjAddr: 0x3A20, symBinAddr: 0x100005DB0, symSize: 0x20 }
  - { offsetInCU: 0xF90F, offset: 0xF90F, size: 0x8, addend: 0x0, symName: __ZNSt3__121__tree_const_iteratorINS_12__value_typeINS_5tupleIJNS_12basic_stringIcNS_11char_traitsIcEENS_9allocatorIcEEEES8_iEEEiEEPNS_11__tree_nodeISA_PvEElEppB7v160006Ev, symObjAddr: 0x3B20, symBinAddr: 0x100005EB0, symSize: 0x30 }
  - { offsetInCU: 0xF935, offset: 0xF935, size: 0x8, addend: 0x0, symName: __ZNSt3__16__treeINS_12__value_typeINS_5tupleIJNS_12basic_stringIcNS_11char_traitsIcEENS_9allocatorIcEEEES8_iEEEiEENS_19__map_value_compareIS9_SA_NS_4lessIS9_EELb1EEENS6_ISA_EEE12__node_allocB7v160006Ev, symObjAddr: 0x3C00, symBinAddr: 0x100005F90, symSize: 0x20 }
  - { offsetInCU: 0xF95B, offset: 0xF95B, size: 0x8, addend: 0x0, symName: __ZNSt3__116allocator_traitsINS_9allocatorINS_11__tree_nodeINS_12__value_typeINS_5tupleIJNS_12basic_stringIcNS_11char_traitsIcEENS1_IcEEEES9_iEEEiEEPvEEEEE8allocateB7v160006ERSE_m, symObjAddr: 0x3C20, symBinAddr: 0x100005FB0, symSize: 0x30 }
  - { offsetInCU: 0xF98E, offset: 0xF98E, size: 0x8, addend: 0x0, symName: __ZNSt3__122__tree_node_destructorINS_9allocatorINS_11__tree_nodeINS_12__value_typeINS_5tupleIJNS_12basic_stringIcNS_11char_traitsIcEENS1_IcEEEES9_iEEEiEEPvEEEEEC1B7v160006ERSE_b, symObjAddr: 0x3C50, symBinAddr: 0x100005FE0, symSize: 0x40 }
  - { offsetInCU: 0xF9DB, offset: 0xF9DB, size: 0x8, addend: 0x0, symName: __ZNSt3__110unique_ptrINS_11__tree_nodeINS_12__value_typeINS_5tupleIJNS_12basic_stringIcNS_11char_traitsIcEENS_9allocatorIcEEEES9_iEEEiEEPvEENS_22__tree_node_destructorINS7_ISD_EEEEEC1B7v160006ILb1EvEEPSD_NS_16__dependent_typeINS_27__unique_ptr_deleter_sfinaeISG_EEXT_EE20__good_rval_ref_typeE, symObjAddr: 0x3C90, symBinAddr: 0x100006020, symSize: 0x30 }
  - { offsetInCU: 0xFA2C, offset: 0xFA2C, size: 0x8, addend: 0x0, symName: __ZNSt3__116allocator_traitsINS_9allocatorINS_11__tree_nodeINS_12__value_typeINS_5tupleIJNS_12basic_stringIcNS_11char_traitsIcEENS1_IcEEEES9_iEEEiEEPvEEEEE9constructB7v160006INS_4pairIKSA_iEEJRKSJ_EvEEvRSE_PT_DpOT0_, symObjAddr: 0x3CC0, symBinAddr: 0x100006050, symSize: 0x30 }
  - { offsetInCU: 0xFA83, offset: 0xFA83, size: 0x8, addend: 0x0, symName: __ZNSt3__122__tree_key_value_typesINS_12__value_typeINS_5tupleIJNS_12basic_stringIcNS_11char_traitsIcEENS_9allocatorIcEEEES8_iEEEiEEE9__get_ptrB7v160006ERSA_, symObjAddr: 0x3CF0, symBinAddr: 0x100006080, symSize: 0x20 }
  - { offsetInCU: 0xFAA7, offset: 0xFAA7, size: 0x8, addend: 0x0, symName: __ZNKSt3__110unique_ptrINS_11__tree_nodeINS_12__value_typeINS_5tupleIJNS_12basic_stringIcNS_11char_traitsIcEENS_9allocatorIcEEEES9_iEEEiEEPvEENS_22__tree_node_destructorINS7_ISD_EEEEEptB7v160006Ev, symObjAddr: 0x3D10, symBinAddr: 0x1000060A0, symSize: 0x20 }
  - { offsetInCU: 0xFACD, offset: 0xFACD, size: 0x8, addend: 0x0, symName: __ZNSt3__110unique_ptrINS_11__tree_nodeINS_12__value_typeINS_5tupleIJNS_12basic_stringIcNS_11char_traitsIcEENS_9allocatorIcEEEES9_iEEEiEEPvEENS_22__tree_node_destructorINS7_ISD_EEEEE11get_deleterB7v160006Ev, symObjAddr: 0x3D30, symBinAddr: 0x1000060C0, symSize: 0x20 }
  - { offsetInCU: 0xFAF3, offset: 0xFAF3, size: 0x8, addend: 0x0, symName: __ZNSt3__117__compressed_pairINS_15__tree_end_nodeIPNS_16__tree_node_baseIPvEEEENS_9allocatorINS_11__tree_nodeINS_12__value_typeINS_5tupleIJNS_12basic_stringIcNS_11char_traitsIcEENS7_IcEEEESF_iEEEiEES3_EEEEE6secondB7v160006Ev, symObjAddr: 0x3D50, symBinAddr: 0x1000060E0, symSize: 0x20 }
  - { offsetInCU: 0xFB19, offset: 0xFB19, size: 0x8, addend: 0x0, symName: __ZNSt3__122__compressed_pair_elemINS_9allocatorINS_11__tree_nodeINS_12__value_typeINS_5tupleIJNS_12basic_stringIcNS_11char_traitsIcEENS1_IcEEEES9_iEEEiEEPvEEEELi1ELb1EE5__getB7v160006Ev, symObjAddr: 0x3D70, symBinAddr: 0x100006100, symSize: 0x10 }
  - { offsetInCU: 0xFB3F, offset: 0xFB3F, size: 0x8, addend: 0x0, symName: __ZNSt3__19allocatorINS_11__tree_nodeINS_12__value_typeINS_5tupleIJNS_12basic_stringIcNS_11char_traitsIcEENS0_IcEEEES8_iEEEiEEPvEEE8allocateB7v160006Em, symObjAddr: 0x3D80, symBinAddr: 0x100006110, symSize: 0x50 }
  - { offsetInCU: 0xFB7D, offset: 0xFB7D, size: 0x8, addend: 0x0, symName: __ZNSt3__116allocator_traitsINS_9allocatorINS_11__tree_nodeINS_12__value_typeINS_5tupleIJNS_12basic_stringIcNS_11char_traitsIcEENS1_IcEEEES9_iEEEiEEPvEEEEE8max_sizeB7v160006ISE_vEEmRKSE_, symObjAddr: 0x3DD0, symBinAddr: 0x100006160, symSize: 0x20 }
  - { offsetInCU: 0xFBAB, offset: 0xFBAB, size: 0x8, addend: 0x0, symName: __ZNKSt3__19allocatorINS_11__tree_nodeINS_12__value_typeINS_5tupleIJNS_12basic_stringIcNS_11char_traitsIcEENS0_IcEEEES8_iEEEiEEPvEEE8max_sizeB7v160006Ev, symObjAddr: 0x3E50, symBinAddr: 0x1000061E0, symSize: 0x20 }
  - { offsetInCU: 0xFBD1, offset: 0xFBD1, size: 0x8, addend: 0x0, symName: __ZNSt3__122__tree_node_destructorINS_9allocatorINS_11__tree_nodeINS_12__value_typeINS_5tupleIJNS_12basic_stringIcNS_11char_traitsIcEENS1_IcEEEES9_iEEEiEEPvEEEEEC2B7v160006ERSE_b, symObjAddr: 0x3E90, symBinAddr: 0x100006220, symSize: 0x30 }
  - { offsetInCU: 0xFC19, offset: 0xFC19, size: 0x8, addend: 0x0, symName: __ZNSt3__110unique_ptrINS_11__tree_nodeINS_12__value_typeINS_5tupleIJNS_12basic_stringIcNS_11char_traitsIcEENS_9allocatorIcEEEES9_iEEEiEEPvEENS_22__tree_node_destructorINS7_ISD_EEEEEC2B7v160006ILb1EvEEPSD_NS_16__dependent_typeINS_27__unique_ptr_deleter_sfinaeISG_EEXT_EE20__good_rval_ref_typeE, symObjAddr: 0x3EC0, symBinAddr: 0x100006250, symSize: 0x40 }
  - { offsetInCU: 0xFC6A, offset: 0xFC6A, size: 0x8, addend: 0x0, symName: __ZNSt3__117__compressed_pairIPNS_11__tree_nodeINS_12__value_typeINS_5tupleIJNS_12basic_stringIcNS_11char_traitsIcEENS_9allocatorIcEEEES9_iEEEiEEPvEENS_22__tree_node_destructorINS7_ISD_EEEEEC1B7v160006IRSE_SH_EEOT_OT0_, symObjAddr: 0x3F00, symBinAddr: 0x100006290, symSize: 0x30 }
  - { offsetInCU: 0xFCC2, offset: 0xFCC2, size: 0x8, addend: 0x0, symName: __ZNSt3__117__compressed_pairIPNS_11__tree_nodeINS_12__value_typeINS_5tupleIJNS_12basic_stringIcNS_11char_traitsIcEENS_9allocatorIcEEEES9_iEEEiEEPvEENS_22__tree_node_destructorINS7_ISD_EEEEEC2B7v160006IRSE_SH_EEOT_OT0_, symObjAddr: 0x3F30, symBinAddr: 0x1000062C0, symSize: 0x40 }
  - { offsetInCU: 0xFD1A, offset: 0xFD1A, size: 0x8, addend: 0x0, symName: __ZNSt3__122__compressed_pair_elemIPNS_11__tree_nodeINS_12__value_typeINS_5tupleIJNS_12basic_stringIcNS_11char_traitsIcEENS_9allocatorIcEEEES9_iEEEiEEPvEELi0ELb0EEC2B7v160006IRSE_vEEOT_, symObjAddr: 0x3F70, symBinAddr: 0x100006300, symSize: 0x20 }
  - { offsetInCU: 0xFD5C, offset: 0xFD5C, size: 0x8, addend: 0x0, symName: __ZNSt3__122__compressed_pair_elemINS_22__tree_node_destructorINS_9allocatorINS_11__tree_nodeINS_12__value_typeINS_5tupleIJNS_12basic_stringIcNS_11char_traitsIcEENS2_IcEEEESA_iEEEiEEPvEEEEEELi1ELb0EEC2B7v160006ISG_vEEOT_, symObjAddr: 0x3F90, symBinAddr: 0x100006320, symSize: 0x30 }
  - { offsetInCU: 0xFD9E, offset: 0xFD9E, size: 0x8, addend: 0x0, symName: __ZNSt3__19allocatorINS_11__tree_nodeINS_12__value_typeINS_5tupleIJNS_12basic_stringIcNS_11char_traitsIcEENS0_IcEEEES8_iEEEiEEPvEEE9constructB7v160006INS_4pairIKS9_iEEJRKSH_EEEvPT_DpOT0_, symObjAddr: 0x3FC0, symBinAddr: 0x100006350, symSize: 0x30 }
  - { offsetInCU: 0xFDF4, offset: 0xFDF4, size: 0x8, addend: 0x0, symName: __ZNSt3__14pairIKNS_5tupleIJNS_12basic_stringIcNS_11char_traitsIcEENS_9allocatorIcEEEES7_iEEEiEC1ERKSA_, symObjAddr: 0x3FF0, symBinAddr: 0x100006380, symSize: 0x30 }
  - { offsetInCU: 0xFE28, offset: 0xFE28, size: 0x8, addend: 0x0, symName: __ZNSt3__14pairIKNS_5tupleIJNS_12basic_stringIcNS_11char_traitsIcEENS_9allocatorIcEEEES7_iEEEiEC2ERKSA_, symObjAddr: 0x4020, symBinAddr: 0x1000063B0, symSize: 0x40 }
  - { offsetInCU: 0xFE5C, offset: 0xFE5C, size: 0x8, addend: 0x0, symName: __ZNSt3__15tupleIJNS_12basic_stringIcNS_11char_traitsIcEENS_9allocatorIcEEEES6_iEEC1ERKS7_, symObjAddr: 0x4060, symBinAddr: 0x1000063F0, symSize: 0x30 }
  - { offsetInCU: 0xFE92, offset: 0xFE92, size: 0x8, addend: 0x0, symName: __ZNSt3__15tupleIJNS_12basic_stringIcNS_11char_traitsIcEENS_9allocatorIcEEEES6_iEEC2ERKS7_, symObjAddr: 0x4090, symBinAddr: 0x100006420, symSize: 0x30 }
  - { offsetInCU: 0xFEC8, offset: 0xFEC8, size: 0x8, addend: 0x0, symName: __ZNSt3__112__tuple_implINS_15__tuple_indicesIJLm0ELm1ELm2EEEEJNS_12basic_stringIcNS_11char_traitsIcEENS_9allocatorIcEEEES8_iEEC1ERKS9_, symObjAddr: 0x40C0, symBinAddr: 0x100006450, symSize: 0x30 }
  - { offsetInCU: 0xFEFE, offset: 0xFEFE, size: 0x8, addend: 0x0, symName: __ZNSt3__112__tuple_implINS_15__tuple_indicesIJLm0ELm1ELm2EEEEJNS_12basic_stringIcNS_11char_traitsIcEENS_9allocatorIcEEEES8_iEEC2ERKS9_, symObjAddr: 0x40F0, symBinAddr: 0x100006480, symSize: 0x70 }
  - { offsetInCU: 0xFF34, offset: 0xFF34, size: 0x8, addend: 0x0, symName: __ZNSt3__112__tuple_leafILm0ENS_12basic_stringIcNS_11char_traitsIcEENS_9allocatorIcEEEELb0EEC2ERKS7_, symObjAddr: 0x4160, symBinAddr: 0x1000064F0, symSize: 0x30 }
  - { offsetInCU: 0xFF6D, offset: 0xFF6D, size: 0x8, addend: 0x0, symName: __ZNSt3__112__tuple_leafILm1ENS_12basic_stringIcNS_11char_traitsIcEENS_9allocatorIcEEEELb0EEC2ERKS7_, symObjAddr: 0x4190, symBinAddr: 0x100006520, symSize: 0x30 }
  - { offsetInCU: 0xFFA6, offset: 0xFFA6, size: 0x8, addend: 0x0, symName: __ZNSt3__112__value_typeINS_5tupleIJNS_12basic_stringIcNS_11char_traitsIcEENS_9allocatorIcEEEES7_iEEEiE11__get_valueB7v160006Ev, symObjAddr: 0x41C0, symBinAddr: 0x100006550, symSize: 0x10 }
  - { offsetInCU: 0xFFCC, offset: 0xFFCC, size: 0x8, addend: 0x0, symName: __ZNKSt3__117__compressed_pairIPNS_11__tree_nodeINS_12__value_typeINS_5tupleIJNS_12basic_stringIcNS_11char_traitsIcEENS_9allocatorIcEEEES9_iEEEiEEPvEENS_22__tree_node_destructorINS7_ISD_EEEEE5firstB7v160006Ev, symObjAddr: 0x41D0, symBinAddr: 0x100006560, symSize: 0x20 }
  - { offsetInCU: 0xFFF2, offset: 0xFFF2, size: 0x8, addend: 0x0, symName: __ZNKSt3__122__compressed_pair_elemIPNS_11__tree_nodeINS_12__value_typeINS_5tupleIJNS_12basic_stringIcNS_11char_traitsIcEENS_9allocatorIcEEEES9_iEEEiEEPvEELi0ELb0EE5__getB7v160006Ev, symObjAddr: 0x41F0, symBinAddr: 0x100006580, symSize: 0x10 }
  - { offsetInCU: 0x10018, offset: 0x10018, size: 0x8, addend: 0x0, symName: __ZNSt3__117__compressed_pairIPNS_11__tree_nodeINS_12__value_typeINS_5tupleIJNS_12basic_stringIcNS_11char_traitsIcEENS_9allocatorIcEEEES9_iEEEiEEPvEENS_22__tree_node_destructorINS7_ISD_EEEEE6secondB7v160006Ev, symObjAddr: 0x4200, symBinAddr: 0x100006590, symSize: 0x20 }
  - { offsetInCU: 0x1003E, offset: 0x1003E, size: 0x8, addend: 0x0, symName: __ZNSt3__122__compressed_pair_elemINS_22__tree_node_destructorINS_9allocatorINS_11__tree_nodeINS_12__value_typeINS_5tupleIJNS_12basic_stringIcNS_11char_traitsIcEENS2_IcEEEESA_iEEEiEEPvEEEEEELi1ELb0EE5__getB7v160006Ev, symObjAddr: 0x4220, symBinAddr: 0x1000065B0, symSize: 0x10 }
  - { offsetInCU: 0x10064, offset: 0x10064, size: 0x8, addend: 0x0, symName: __ZNSt3__16__treeINS_12__value_typeINS_5tupleIJNS_12basic_stringIcNS_11char_traitsIcEENS_9allocatorIcEEEES8_iEEEiEENS_19__map_value_compareIS9_SA_NS_4lessIS9_EELb1EEENS6_ISA_EEE4sizeB7v160006Ev, symObjAddr: 0x4470, symBinAddr: 0x100006800, symSize: 0x20 }
  - { offsetInCU: 0x1008A, offset: 0x1008A, size: 0x8, addend: 0x0, symName: __ZNSt3__116__tree_node_baseIPvE12__set_parentB7v160006EPS2_, symObjAddr: 0x4620, symBinAddr: 0x1000069B0, symSize: 0x20 }
  - { offsetInCU: 0x100BF, offset: 0x100BF, size: 0x8, addend: 0x0, symName: __ZNSt3__117__compressed_pairImNS_19__map_value_compareINS_5tupleIJNS_12basic_stringIcNS_11char_traitsIcEENS_9allocatorIcEEEES8_iEEENS_12__value_typeIS9_iEENS_4lessIS9_EELb1EEEE5firstB7v160006Ev, symObjAddr: 0x4640, symBinAddr: 0x1000069D0, symSize: 0x20 }
  - { offsetInCU: 0x100E5, offset: 0x100E5, size: 0x8, addend: 0x0, symName: __ZNSt3__122__compressed_pair_elemImLi0ELb0EE5__getB7v160006Ev, symObjAddr: 0x4660, symBinAddr: 0x1000069F0, symSize: 0x10 }
  - { offsetInCU: 0x1010B, offset: 0x1010B, size: 0x8, addend: 0x0, symName: __ZNSt3__117__compressed_pairIPNS_11__tree_nodeINS_12__value_typeINS_5tupleIJNS_12basic_stringIcNS_11char_traitsIcEENS_9allocatorIcEEEES9_iEEEiEEPvEENS_22__tree_node_destructorINS7_ISD_EEEEE5firstB7v160006Ev, symObjAddr: 0x4670, symBinAddr: 0x100006A00, symSize: 0x20 }
  - { offsetInCU: 0x10131, offset: 0x10131, size: 0x8, addend: 0x0, symName: __ZNSt3__122__compressed_pair_elemIPNS_11__tree_nodeINS_12__value_typeINS_5tupleIJNS_12basic_stringIcNS_11char_traitsIcEENS_9allocatorIcEEEES9_iEEEiEEPvEELi0ELb0EE5__getB7v160006Ev, symObjAddr: 0x4690, symBinAddr: 0x100006A20, symSize: 0x10 }
  - { offsetInCU: 0x10157, offset: 0x10157, size: 0x8, addend: 0x0, symName: __ZNSt3__110unique_ptrINS_11__tree_nodeINS_12__value_typeINS_5tupleIJNS_12basic_stringIcNS_11char_traitsIcEENS_9allocatorIcEEEES9_iEEEiEEPvEENS_22__tree_node_destructorINS7_ISD_EEEEED2B7v160006Ev, symObjAddr: 0x46A0, symBinAddr: 0x100006A30, symSize: 0x20 }
  - { offsetInCU: 0x10181, offset: 0x10181, size: 0x8, addend: 0x0, symName: __ZNSt3__110unique_ptrINS_11__tree_nodeINS_12__value_typeINS_5tupleIJNS_12basic_stringIcNS_11char_traitsIcEENS_9allocatorIcEEEES9_iEEEiEEPvEENS_22__tree_node_destructorINS7_ISD_EEEEE5resetB7v160006EPSD_, symObjAddr: 0x46C0, symBinAddr: 0x100006A50, symSize: 0x70 }
  - { offsetInCU: 0x101C5, offset: 0x101C5, size: 0x8, addend: 0x0, symName: __ZNSt3__122__tree_node_destructorINS_9allocatorINS_11__tree_nodeINS_12__value_typeINS_5tupleIJNS_12basic_stringIcNS_11char_traitsIcEENS1_IcEEEES9_iEEEiEEPvEEEEEclB7v160006EPSD_, symObjAddr: 0x4730, symBinAddr: 0x100006AC0, symSize: 0x90 }
  - { offsetInCU: 0x101FA, offset: 0x101FA, size: 0x8, addend: 0x0, symName: __ZNSt3__116allocator_traitsINS_9allocatorINS_11__tree_nodeINS_12__value_typeINS_5tupleIJNS_12basic_stringIcNS_11char_traitsIcEENS1_IcEEEES9_iEEEiEEPvEEEEE7destroyB7v160006INS_4pairIKSA_iEEvvEEvRSE_PT_, symObjAddr: 0x47C0, symBinAddr: 0x100006B50, symSize: 0x20 }
  - { offsetInCU: 0x10235, offset: 0x10235, size: 0x8, addend: 0x0, symName: __ZNSt3__116allocator_traitsINS_9allocatorINS_11__tree_nodeINS_12__value_typeINS_5tupleIJNS_12basic_stringIcNS_11char_traitsIcEENS1_IcEEEES9_iEEEiEEPvEEEEE10deallocateB7v160006ERSE_PSD_m, symObjAddr: 0x47E0, symBinAddr: 0x100006B70, symSize: 0x30 }
  - { offsetInCU: 0x10277, offset: 0x10277, size: 0x8, addend: 0x0, symName: __ZNSt3__19allocatorINS_11__tree_nodeINS_12__value_typeINS_5tupleIJNS_12basic_stringIcNS_11char_traitsIcEENS0_IcEEEES8_iEEEiEEPvEEE10deallocateB7v160006EPSC_m, symObjAddr: 0x4810, symBinAddr: 0x100006BA0, symSize: 0x50 }
  - { offsetInCU: 0x102B9, offset: 0x102B9, size: 0x8, addend: 0x0, symName: __ZNSt3__115__tree_iteratorINS_12__value_typeINS_5tupleIJNS_12basic_stringIcNS_11char_traitsIcEENS_9allocatorIcEEEES8_iEEEiEEPNS_11__tree_nodeISA_PvEElEC2B7v160006ESE_, symObjAddr: 0x48D0, symBinAddr: 0x100006C60, symSize: 0x20 }
  - { offsetInCU: 0x102F2, offset: 0x102F2, size: 0x8, addend: 0x0, symName: __ZNSt3__14pairINS_15__tree_iteratorINS_12__value_typeINS_5tupleIJNS_12basic_stringIcNS_11char_traitsIcEENS_9allocatorIcEEEES9_iEEEiEEPNS_11__tree_nodeISB_PvEElEEbEC2B7v160006ISG_RbLSD_0EEEOT_OT0_, symObjAddr: 0x48F0, symBinAddr: 0x100006C80, symSize: 0x30 }
  - { offsetInCU: 0x10350, offset: 0x10350, size: 0x8, addend: 0x0, symName: __ZNSt3__114__map_iteratorINS_15__tree_iteratorINS_12__value_typeINS_5tupleIJNS_12basic_stringIcNS_11char_traitsIcEENS_9allocatorIcEEEES9_iEEEiEEPNS_11__tree_nodeISB_PvEElEEEC2B7v160006ESG_, symObjAddr: 0x4920, symBinAddr: 0x100006CB0, symSize: 0x20 }
  - { offsetInCU: 0x10389, offset: 0x10389, size: 0x8, addend: 0x0, symName: __ZNSt3__120__map_const_iteratorINS_21__tree_const_iteratorINS_12__value_typeINS_5tupleIJNS_12basic_stringIcNS_11char_traitsIcEENS_9allocatorIcEEEES9_iEEEiEEPNS_11__tree_nodeISB_PvEElEEEC2B7v160006ESG_, symObjAddr: 0x4940, symBinAddr: 0x100006CD0, symSize: 0x20 }
  - { offsetInCU: 0x103C2, offset: 0x103C2, size: 0x8, addend: 0x0, symName: __ZNSt3__16__treeINS_12__value_typeINS_5tupleIJNS_12basic_stringIcNS_11char_traitsIcEENS_9allocatorIcEEEES8_iEEEiEENS_19__map_value_compareIS9_SA_NS_4lessIS9_EELb1EEENS6_ISA_EEED2Ev, symObjAddr: 0x4960, symBinAddr: 0x100006CF0, symSize: 0x30 }
  - { offsetInCU: 0x103EE, offset: 0x103EE, size: 0x8, addend: 0x0, symName: __ZNSt3__16__treeINS_12__value_typeINS_5tupleIJNS_12basic_stringIcNS_11char_traitsIcEENS_9allocatorIcEEEES8_iEEEiEENS_19__map_value_compareIS9_SA_NS_4lessIS9_EELb1EEENS6_ISA_EEE7destroyEPNS_11__tree_nodeISA_PvEE, symObjAddr: 0x4990, symBinAddr: 0x100006D20, symSize: 0xA0 }
  - { offsetInCU: 0x1043A, offset: 0x1043A, size: 0x8, addend: 0x0, symName: __ZNSt3__13mapINS_5tupleIJNS_12basic_stringIcNS_11char_traitsIcEENS_9allocatorIcEEEES7_iEEEiNS_4lessIS8_EENS5_INS_4pairIKS8_iEEEEED2B7v160006Ev, symObjAddr: 0x4A30, symBinAddr: 0x100006DC0, symSize: 0x20 }
  - { offsetInCU: 0x10478, offset: 0x10478, size: 0x8, addend: 0x0, symName: __ZNSt3__16__treeINS_12__value_typeINS_5tupleIJNS_12basic_stringIcNS_11char_traitsIcEENS_9allocatorIcEEEES8_iEEEiEENS_19__map_value_compareIS9_SA_NS_4lessIS9_EELb1EEENS6_ISA_EEE25__emplace_unique_key_argsIS9_JRKNS_21piecewise_construct_tENS2_IJRKS9_EEENS2_IJEEEEEENS_4pairINS_15__tree_iteratorISA_PNS_11__tree_nodeISA_PvEElEEbEERKT_DpOT0_, symObjAddr: 0x4A50, symBinAddr: 0x100006DE0, symSize: 0x100 }
  - { offsetInCU: 0x10557, offset: 0x10557, size: 0x8, addend: 0x0, symName: __ZNKSt3__115__tree_iteratorINS_12__value_typeINS_5tupleIJNS_12basic_stringIcNS_11char_traitsIcEENS_9allocatorIcEEEES8_iEEEiEEPNS_11__tree_nodeISA_PvEElEptB7v160006Ev, symObjAddr: 0x4B90, symBinAddr: 0x100006F20, symSize: 0x30 }
  - { offsetInCU: 0x1057D, offset: 0x1057D, size: 0x8, addend: 0x0, symName: __ZNSt3__16__treeINS_12__value_typeINS_5tupleIJNS_12basic_stringIcNS_11char_traitsIcEENS_9allocatorIcEEEES8_iEEEiEENS_19__map_value_compareIS9_SA_NS_4lessIS9_EELb1EEENS6_ISA_EEE16__construct_nodeIJRKNS_21piecewise_construct_tENS2_IJRKS9_EEENS2_IJEEEEEENS_10unique_ptrINS_11__tree_nodeISA_PvEENS_22__tree_node_destructorINS6_ISS_EEEEEEDpOT_, symObjAddr: 0x4BC0, symBinAddr: 0x100006F50, symSize: 0x120 }
  - { offsetInCU: 0x10606, offset: 0x10606, size: 0x8, addend: 0x0, symName: __ZNSt3__116allocator_traitsINS_9allocatorINS_11__tree_nodeINS_12__value_typeINS_5tupleIJNS_12basic_stringIcNS_11char_traitsIcEENS1_IcEEEES9_iEEEiEEPvEEEEE9constructB7v160006INS_4pairIKSA_iEEJRKNS_21piecewise_construct_tENS4_IJRSI_EEENS4_IJEEEEvEEvRSE_PT_DpOT0_, symObjAddr: 0x4CE0, symBinAddr: 0x100007070, symSize: 0x40 }
  - { offsetInCU: 0x10685, offset: 0x10685, size: 0x8, addend: 0x0, symName: __ZNSt3__19allocatorINS_11__tree_nodeINS_12__value_typeINS_5tupleIJNS_12basic_stringIcNS_11char_traitsIcEENS0_IcEEEES8_iEEEiEEPvEEE9constructB7v160006INS_4pairIKS9_iEEJRKNS_21piecewise_construct_tENS3_IJRSG_EEENS3_IJEEEEEEvPT_DpOT0_, symObjAddr: 0x4D20, symBinAddr: 0x1000070B0, symSize: 0x40 }
  - { offsetInCU: 0x10701, offset: 0x10701, size: 0x8, addend: 0x0, symName: __ZNSt3__14pairIKNS_5tupleIJNS_12basic_stringIcNS_11char_traitsIcEENS_9allocatorIcEEEES7_iEEEiEC1B7v160006IJRS9_EJEEENS_21piecewise_construct_tENS1_IJDpT_EEENS1_IJDpT0_EEE, symObjAddr: 0x4D60, symBinAddr: 0x1000070F0, symSize: 0x30 }
  - { offsetInCU: 0x10768, offset: 0x10768, size: 0x8, addend: 0x0, symName: __ZNSt3__14pairIKNS_5tupleIJNS_12basic_stringIcNS_11char_traitsIcEENS_9allocatorIcEEEES7_iEEEiEC1B7v160006IJRS9_EJEJLm0EEJEEENS_21piecewise_construct_tERNS1_IJDpT_EEERNS1_IJDpT0_EEENS_15__tuple_indicesIJXspT1_EEEENSM_IJXspT2_EEEE, symObjAddr: 0x4D90, symBinAddr: 0x100007120, symSize: 0x30 }
  - { offsetInCU: 0x107F8, offset: 0x107F8, size: 0x8, addend: 0x0, symName: __ZNSt3__14pairIKNS_5tupleIJNS_12basic_stringIcNS_11char_traitsIcEENS_9allocatorIcEEEES7_iEEEiEC2B7v160006IJRS9_EJEJLm0EEJEEENS_21piecewise_construct_tERNS1_IJDpT_EEERNS1_IJDpT0_EEENS_15__tuple_indicesIJXspT1_EEEENSM_IJXspT2_EEEE, symObjAddr: 0x4DC0, symBinAddr: 0x100007150, symSize: 0x50 }
  - { offsetInCU: 0x10888, offset: 0x10888, size: 0x8, addend: 0x0, symName: __ZNSt3__112__tuple_leafILm0ERKNS_5tupleIJNS_12basic_stringIcNS_11char_traitsIcEENS_9allocatorIcEEEES7_iEEELb0EE3getB7v160006Ev, symObjAddr: 0x4E30, symBinAddr: 0x1000071C0, symSize: 0x20 }
  - { offsetInCU: 0x108AE, offset: 0x108AE, size: 0x8, addend: 0x0, symName: __ZNSt3__15tupleIJRKNS0_IJNS_12basic_stringIcNS_11char_traitsIcEENS_9allocatorIcEEEES6_iEEEEEC1B7v160006INS_4_AndELi0EEES9_, symObjAddr: 0x4E50, symBinAddr: 0x1000071E0, symSize: 0x30 }
  - { offsetInCU: 0x108F6, offset: 0x108F6, size: 0x8, addend: 0x0, symName: __ZNSt3__15tupleIJRKNS0_IJNS_12basic_stringIcNS_11char_traitsIcEENS_9allocatorIcEEEES6_iEEEEEC2B7v160006INS_4_AndELi0EEES9_, symObjAddr: 0x4E80, symBinAddr: 0x100007210, symSize: 0x30 }
  - { offsetInCU: 0x1093E, offset: 0x1093E, size: 0x8, addend: 0x0, symName: __ZNSt3__112__tuple_implINS_15__tuple_indicesIJLm0EEEEJRKNS_5tupleIJNS_12basic_stringIcNS_11char_traitsIcEENS_9allocatorIcEEEES9_iEEEEEC1B7v160006IJLm0EEJSC_EJEJEJSC_EEENS1_IJXspT_EEEENS_13__tuple_typesIJDpT0_EEENS1_IJXspT1_EEEENSG_IJDpT2_EEEDpOT3_, symObjAddr: 0x4EB0, symBinAddr: 0x100007240, symSize: 0x30 }
  - { offsetInCU: 0x109D3, offset: 0x109D3, size: 0x8, addend: 0x0, symName: __ZNSt3__112__tuple_implINS_15__tuple_indicesIJLm0EEEEJRKNS_5tupleIJNS_12basic_stringIcNS_11char_traitsIcEENS_9allocatorIcEEEES9_iEEEEEC2B7v160006IJLm0EEJSC_EJEJEJSC_EEENS1_IJXspT_EEEENS_13__tuple_typesIJDpT0_EEENS1_IJXspT1_EEEENSG_IJDpT2_EEEDpOT3_, symObjAddr: 0x4EE0, symBinAddr: 0x100007270, symSize: 0x30 }
  - { offsetInCU: 0x10A68, offset: 0x10A68, size: 0x8, addend: 0x0, symName: __ZNSt3__112__tuple_leafILm0ERKNS_5tupleIJNS_12basic_stringIcNS_11char_traitsIcEENS_9allocatorIcEEEES7_iEEELb0EEC2B7v160006ISA_vEEOT_, symObjAddr: 0x4F10, symBinAddr: 0x1000072A0, symSize: 0x20 }
  - { offsetInCU: 0x10AAB, offset: 0x10AAB, size: 0x8, addend: 0x0, symName: __ZNSt3__114pointer_traitsIPNS_12__value_typeINS_5tupleIJNS_12basic_stringIcNS_11char_traitsIcEENS_9allocatorIcEEEES8_iEEEiEEE10pointer_toB7v160006ERSA_, symObjAddr: 0x4F30, symBinAddr: 0x1000072C0, symSize: 0x10 }
  - { offsetInCU: 0x10ACE, offset: 0x10ACE, size: 0x8, addend: 0x0, symName: __ZNKSt3__115__tree_iteratorINS_12__value_typeINS_5tupleIJNS_12basic_stringIcNS_11char_traitsIcEENS_9allocatorIcEEEES8_iEEEiEEPNS_11__tree_nodeISA_PvEElE8__get_npB7v160006Ev, symObjAddr: 0x4F40, symBinAddr: 0x1000072D0, symSize: 0x20 }
  - { offsetInCU: 0x10B12, offset: 0x10B12, size: 0x8, addend: 0x0, symName: __ZNKSt3__113basic_ostreamIcNS_11char_traitsIcEEE6sentrycvbB7v160006Ev, symObjAddr: 0x5150, symBinAddr: 0x1000074E0, symSize: 0x20 }
  - { offsetInCU: 0x10B38, offset: 0x10B38, size: 0x8, addend: 0x0, symName: __ZNSt3__119ostreambuf_iteratorIcNS_11char_traitsIcEEEC1B7v160006ERNS_13basic_ostreamIcS2_EE, symObjAddr: 0x5390, symBinAddr: 0x100007720, symSize: 0x30 }
  - { offsetInCU: 0x10B70, offset: 0x10B70, size: 0x8, addend: 0x0, symName: __ZNKSt3__18ios_base5flagsB7v160006Ev, symObjAddr: 0x53C0, symBinAddr: 0x100007750, symSize: 0x20 }
  - { offsetInCU: 0x10B98, offset: 0x10B98, size: 0x8, addend: 0x0, symName: __ZNKSt3__19basic_iosIcNS_11char_traitsIcEEE4fillB7v160006Ev, symObjAddr: 0x53E0, symBinAddr: 0x100007770, symSize: 0x70 }
  - { offsetInCU: 0x10BC0, offset: 0x10BC0, size: 0x8, addend: 0x0, symName: __ZNKSt3__119ostreambuf_iteratorIcNS_11char_traitsIcEEE6failedB7v160006Ev, symObjAddr: 0x5450, symBinAddr: 0x1000077E0, symSize: 0x20 }
  - { offsetInCU: 0x10BE6, offset: 0x10BE6, size: 0x8, addend: 0x0, symName: __ZNSt3__19basic_iosIcNS_11char_traitsIcEEE8setstateB7v160006Ej, symObjAddr: 0x5470, symBinAddr: 0x100007800, symSize: 0x30 }
  - { offsetInCU: 0x10C1B, offset: 0x10C1B, size: 0x8, addend: 0x0, symName: __ZNKSt3__18ios_base5widthB7v160006Ev, symObjAddr: 0x54A0, symBinAddr: 0x100007830, symSize: 0x20 }
  - { offsetInCU: 0x10C43, offset: 0x10C43, size: 0x8, addend: 0x0, symName: __ZNSt3__115basic_streambufIcNS_11char_traitsIcEEE5sputnB7v160006EPKcl, symObjAddr: 0x54C0, symBinAddr: 0x100007850, symSize: 0x30 }
  - { offsetInCU: 0x10C85, offset: 0x10C85, size: 0x8, addend: 0x0, symName: __ZNSt3__112basic_stringIcNS_11char_traitsIcEENS_9allocatorIcEEEC1B7v160006Emc, symObjAddr: 0x54F0, symBinAddr: 0x100007880, symSize: 0x30 }
  - { offsetInCU: 0x10CCD, offset: 0x10CCD, size: 0x8, addend: 0x0, symName: __ZNSt3__18ios_base5widthB7v160006El, symObjAddr: 0x5520, symBinAddr: 0x1000078B0, symSize: 0x30 }
  - { offsetInCU: 0x10D13, offset: 0x10D13, size: 0x8, addend: 0x0, symName: __ZNSt3__112basic_stringIcNS_11char_traitsIcEENS_9allocatorIcEEEC2B7v160006Emc, symObjAddr: 0x5550, symBinAddr: 0x1000078E0, symSize: 0x50 }
  - { offsetInCU: 0x10D5B, offset: 0x10D5B, size: 0x8, addend: 0x0, symName: __ZNSt3__119ostreambuf_iteratorIcNS_11char_traitsIcEEEC2B7v160006ERNS_13basic_ostreamIcS2_EE, symObjAddr: 0x55A0, symBinAddr: 0x100007930, symSize: 0x50 }
  - { offsetInCU: 0x10D93, offset: 0x10D93, size: 0x8, addend: 0x0, symName: __ZNKSt3__19basic_iosIcNS_11char_traitsIcEEE5rdbufB7v160006Ev, symObjAddr: 0x55F0, symBinAddr: 0x100007980, symSize: 0x20 }
  - { offsetInCU: 0x10DBB, offset: 0x10DBB, size: 0x8, addend: 0x0, symName: __ZNKSt3__18ios_base5rdbufB7v160006Ev, symObjAddr: 0x5610, symBinAddr: 0x1000079A0, symSize: 0x20 }
  - { offsetInCU: 0x10DE1, offset: 0x10DE1, size: 0x8, addend: 0x0, symName: __ZNSt3__111char_traitsIcE11eq_int_typeEii, symObjAddr: 0x5630, symBinAddr: 0x1000079C0, symSize: 0x20 }
  - { offsetInCU: 0x10E12, offset: 0x10E12, size: 0x8, addend: 0x0, symName: __ZNSt3__111char_traitsIcE3eofEv, symObjAddr: 0x5650, symBinAddr: 0x1000079E0, symSize: 0x10 }
  - { offsetInCU: 0x10E26, offset: 0x10E26, size: 0x8, addend: 0x0, symName: __ZNKSt3__19basic_iosIcNS_11char_traitsIcEEE5widenB7v160006Ec, symObjAddr: 0x5660, symBinAddr: 0x1000079F0, symSize: 0x80 }
  - { offsetInCU: 0x10E94, offset: 0x10E94, size: 0x8, addend: 0x0, symName: __ZNKSt3__15ctypeIcE5widenB7v160006Ec, symObjAddr: 0x5710, symBinAddr: 0x100007AA0, symSize: 0x30 }
  - { offsetInCU: 0x10EC9, offset: 0x10EC9, size: 0x8, addend: 0x0, symName: __ZNSt3__18ios_base8setstateB7v160006Ej, symObjAddr: 0x5740, symBinAddr: 0x100007AD0, symSize: 0x24 }
...
